

Microchip Technology PIC18 PRO Macro Assembler V1.36 build -262312587 
                                                                                               Sun Apr  3 18:35:22 2016

Microchip Technology Omniscient Code Generator v1.36 (PRO mode) build 201601150325
     1                           	processor	18F26K22
     2                           	fnconf	rparam,??,?,0
     3                           	opt	pw 120
     4                           	opt	pm
     5                           	psect	smallconst,global,reloc=2,class=SMALLCONST,delta=1
     6                           	psect	nvCOMRAM,global,class=COMRAM,space=1,delta=1
     7                           	psect	cinit,global,reloc=2,class=CODE,delta=1
     8                           	psect	bssCOMRAM,global,class=COMRAM,space=1,delta=1
     9                           	psect	bssBANK0,global,class=BANK0,space=1,delta=1
    10                           	psect	cstackBANK0,global,class=BANK0,space=1,delta=1
    11                           	psect	cstackCOMRAM,global,class=COMRAM,space=1,delta=1
    12                           	psect	text0,global,reloc=2,class=CODE,delta=1
    13                           	psect	text1,global,reloc=2,class=CODE,delta=1
    14                           	psect	text2,global,reloc=2,class=CODE,delta=1
    15                           	psect	text3,global,reloc=2,class=CODE,delta=1
    16                           	psect	text4,global,reloc=2,class=CODE,delta=1
    17                           	psect	text5,global,reloc=2,class=CODE,delta=1
    18                           	psect	text6,global,reloc=2,class=CODE,delta=1
    19                           	psect	text7,global,reloc=2,class=CODE,delta=1
    20                           	psect	text8,global,reloc=2,class=CODE,delta=1
    21                           	psect	text9,global,reloc=2,class=CODE,delta=1
    22                           	psect	text10,global,reloc=2,class=CODE,delta=1
    23                           	psect	text11,global,reloc=2,class=CODE,delta=1
    24                           	psect	text12,global,reloc=2,class=CODE,delta=1
    25                           	psect	text13,global,reloc=2,class=CODE,delta=1
    26                           	psect	text14,global,reloc=2,class=CODE,delta=1
    27                           	psect	text15,global,reloc=2,class=CODE,delta=1
    28                           	psect	text16,global,reloc=2,class=CODE,delta=1
    29                           	psect	text17,global,reloc=2,class=CODE,delta=1
    30                           	psect	text18,global,reloc=2,class=CODE,delta=1
    31                           	psect	text19,global,reloc=2,class=CODE,delta=1
    32                           	psect	text20,global,reloc=2,class=CODE,delta=1
    33                           	psect	text21,global,reloc=2,class=CODE,delta=1
    34                           	psect	text22,global,reloc=2,class=CODE,delta=1
    35                           	psect	text23,global,reloc=2,class=CODE,delta=1
    36                           	psect	text24,global,reloc=2,class=CODE,delta=1
    37                           	psect	text25,global,reloc=2,class=CODE,delta=1
    38                           	psect	text26,global,reloc=2,class=CODE,delta=1
    39                           	psect	text27,global,reloc=2,class=CODE,delta=1
    40                           	psect	text28,global,reloc=2,class=CODE,delta=1
    41                           	psect	text29,global,reloc=2,class=CODE,delta=1
    42                           	psect	text30,global,reloc=2,class=CODE,delta=1
    43                           	psect	text31,global,reloc=2,class=CODE,delta=1
    44                           	psect	text32,global,reloc=2,class=CODE,delta=1
    45                           	psect	text33,global,reloc=2,class=CODE,delta=1
    46                           	psect	text34,global,reloc=2,class=CODE,delta=1
    47                           	psect	text35,global,reloc=2,class=CODE,delta=1
    48                           	psect	text36,global,reloc=2,class=CODE,delta=1
    49                           	psect	text37,global,reloc=2,class=CODE,delta=1
    50                           	psect	text38,global,reloc=2,class=CODE,delta=1
    51                           	psect	text39,global,reloc=2,class=CODE,delta=1
    52                           	psect	text40,global,reloc=2,class=CODE,delta=1
    53                           	psect	intcode,global,reloc=2,class=CODE,delta=1
    54                           	psect	text42,global,reloc=2,class=CODE,delta=1
    55                           	psect	text43,global,reloc=2,class=CODE,delta=1
    56                           	psect	text44,global,reloc=2,class=CODE,delta=1
    57                           	psect	text45,global,reloc=2,class=CODE,delta=1
    58                           	psect	text46,global,reloc=2,class=CODE,delta=1
    59                           	psect	text47,global,reloc=2,class=CODE,delta=1
    60                           	psect	text48,global,reloc=2,class=CODE,delta=1
    61                           	psect	text49,global,reloc=2,class=CODE,delta=1
    62                           	psect	text50,global,reloc=2,class=CODE,delta=1
    63                           	psect	text51,global,reloc=2,class=CODE,delta=1
    64                           	psect	text52,global,reloc=2,class=CODE,delta=1
    65                           	psect	text53,global,reloc=2,class=CODE,delta=1
    66                           	psect	text54,global,reloc=2,class=CODE,delta=1
    67                           	psect	text55,global,reloc=2,class=CODE,delta=1
    68                           	psect	intsave_regs,global,class=BIGRAM,space=1,delta=1
    69                           	psect	text56,global,reloc=2,class=CODE,delta=1
    70                           	psect	rparam,global,class=COMRAM,space=1,delta=1
    71                           	psect	temp,global,ovrld,common,class=COMRAM,space=1,delta=1
    72  0000                     
    73                           	psect	smallconst
    74  001000                     __psmallconst:
    75                           	opt stack 0
    76  001000  00                 	db	0
    77  001001  3C                 	db	60
    78  001002  00                 	db	0
    79  001003  00                 	db	0
    80  001004  00                 	db	0
    81  001005  00                 	db	0
    82  001006  00                 	db	0
    83  001007  FF                 	db	255
    84  001008                     __end_of_PIU_HEARTBEAT_PACKET:
    85                           	opt stack 0
    86  001008  30                 	db	48	;'0'
    87  001009  78                 	db	120	;'x'
    88  00100A  39                 	db	57	;'9'
    89  00100B  38                 	db	56	;'8'
    90  00100C  44                 	db	68	;'D'
    91  00100D  33                 	db	51	;'3'
    92  00100E  33                 	db	51	;'3'
    93  00100F  31                 	db	49	;'1'
    94  001010  38                 	db	56	;'8'
    95  001011  30                 	db	48	;'0'
    96  001012  36                 	db	54	;'6'
    97  001013  30                 	db	48	;'0'
    98  001014  46                 	db	70	;'F'
    99  001015  31                 	db	49	;'1'
   100  001016  00                 	db	0
   101  001017  43                 	db	67	;'C'
   102  001018  4D                 	db	77	;'M'
   103  001019  44                 	db	68	;'D'
   104  00101A  00                 	db	0
   105                           
   106                           ; #config settings
   107  00101B  00                 	db	0	; dummy byte at the end
   108  0000                     
   109                           	psect	nvCOMRAM
   110  00004F                     __pnvCOMRAM:
   111                           	opt stack 0
   112  00004F                     _TMR3_InterruptHandler:
   113                           	opt stack 0
   114  00004F                     	ds	2
   115  000051                     _timer1ReloadVal:
   116                           	opt stack 0
   117  000051                     	ds	2
   118  000053                     _timer3ReloadVal:
   119                           	opt stack 0
   120  000053                     	ds	2
   121  000055                     _eusart1TxBufferRemaining:
   122                           	opt stack 0
   123  000055                     	ds	1
   124  000056                     _eusart2TxBufferRemaining:
   125                           	opt stack 0
   126  000056                     	ds	1
   127  0000                     _ANSELA	set	3896
   128  0000                     _ANSELAbits	set	3896
   129  0000                     _ANSELB	set	3897
   130  0000                     _ANSELC	set	3898
   131  0000                     _CCP4CON	set	3927
   132  0000                     _CCP5CON	set	3924
   133  0000                     _CCPR4H	set	3929
   134  0000                     _CCPR4L	set	3928
   135  0000                     _CCPR5H	set	3926
   136  0000                     _CCPR5L	set	3925
   137  0000                     _CCPTMRS1bits	set	3912
   138  0000                     _PR4	set	3922
   139  0000                     _T4CON	set	3921
   140  0000                     _T4CONbits	set	3921
   141  0000                     _TMR4	set	3923
   142  0000                     _TMR1	set	4046
   143  0000                     _TMR3	set	4018
   144  0000                     _BAUDCON1	set	4024
   145  0000                     _BAUDCON2	set	3952
   146  0000                     _INTCON2bits	set	4081
   147  0000                     _INTCONbits	set	4082
   148  0000                     _IPR1bits	set	3999
   149  0000                     _IPR2bits	set	4002
   150  0000                     _IPR3bits	set	4005
   151  0000                     _IPR4bits	set	3964
   152  0000                     _LATA	set	3977
   153  0000                     _LATAbits	set	3977
   154  0000                     _LATB	set	3978
   155  0000                     _LATBbits	set	3978
   156  0000                     _LATC	set	3979
   157  0000                     _OSCCON	set	4051
   158  0000                     _OSCCON2	set	4050
   159  0000                     _OSCTUNE	set	3995
   160  0000                     _PIE1bits	set	3997
   161  0000                     _PIE2bits	set	4000
   162  0000                     _PIE3bits	set	4003
   163  0000                     _PIE4bits	set	3962
   164  0000                     _PIR1bits	set	3998
   165  0000                     _PIR2bits	set	4001
   166  0000                     _PIR3bits	set	4004
   167  0000                     _PIR4bits	set	3963
   168  0000                     _PIR5bits	set	3966
   169  0000                     _PR2	set	4027
   170  0000                     _RCONbits	set	4048
   171  0000                     _RCREG1	set	4014
   172  0000                     _RCREG2	set	3956
   173  0000                     _RCSTA1	set	4011
   174  0000                     _RCSTA1bits	set	4011
   175  0000                     _RCSTA2	set	3953
   176  0000                     _RCSTA2bits	set	3953
   177  0000                     _SPBRG1	set	4015
   178  0000                     _SPBRG2	set	3957
   179  0000                     _SPBRGH1	set	4016
   180  0000                     _SPBRGH2	set	3958
   181  0000                     _SSP1ADD	set	4040
   182  0000                     _SSP1CON1	set	4038
   183  0000                     _SSP1STAT	set	4039
   184  0000                     _SSP2ADD	set	3950
   185  0000                     _SSP2BUF	set	3951
   186  0000                     _SSP2CON1	set	3948
   187  0000                     _SSP2CON1bits	set	3948
   188  0000                     _SSP2CON2bits	set	3947
   189  0000                     _SSP2CON3	set	3945
   190  0000                     _SSP2STAT	set	3949
   191  0000                     _T1CON	set	4045
   192  0000                     _T1CONbits	set	4045
   193  0000                     _T1GCON	set	4044
   194  0000                     _T2CON	set	4026
   195  0000                     _T2CONbits	set	4026
   196  0000                     _T3CON	set	4017
   197  0000                     _T3CONbits	set	4017
   198  0000                     _T3GCON	set	4020
   199  0000                     _TMR1H	set	4047
   200  0000                     _TMR1L	set	4046
   201  0000                     _TMR2	set	4028
   202  0000                     _TMR3H	set	4019
   203  0000                     _TMR3L	set	4018
   204  0000                     _TRISA	set	3986
   205  0000                     _TRISAbits	set	3986
   206  0000                     _TRISB	set	3987
   207  0000                     _TRISC	set	3988
   208  0000                     _TXREG1	set	4013
   209  0000                     _TXREG2	set	3955
   210  0000                     _TXSTA1	set	4012
   211  0000                     _TXSTA2	set	3954
   212  0000                     _WPUB	set	3937
   213                           
   214                           	psect	cinit
   215  001ED4                     __pcinit:
   216                           	opt stack 0
   217  001ED4                     start_initialization:
   218                           	opt stack 0
   219  001ED4                     __initialization:
   220                           	opt stack 0
   221                           
   222                           ; Clear objects allocated to BANK0 (21 bytes)
   223  001ED4  EE00  F060         	lfsr	0,__pbssBANK0
   224  001ED8  0E15               	movlw	21
   225  001EDA                     clear_0:
   226  001EDA  6AEE               	clrf	postinc0,c
   227  001EDC  06E8               	decf	wreg,f,c
   228  001EDE  E1FD               	bnz	clear_0
   229                           
   230                           ; Clear objects allocated to COMRAM (67 bytes)
   231  001EE0  EE00  F001         	lfsr	0,__pbssCOMRAM
   232  001EE4  0E43               	movlw	67
   233  001EE6                     clear_1:
   234  001EE6  6AEE               	clrf	postinc0,c
   235  001EE8  06E8               	decf	wreg,f,c
   236  001EEA  E1FD               	bnz	clear_1
   237  001EEC                     end_of_initialization:
   238                           	opt stack 0
   239  001EEC                     __end_of__initialization:
   240                           	opt stack 0
   241  001EEC  9057               	bcf	int$flags,0,c	;clear compiler interrupt flag (level 1)
   242  001EEE  9257               	bcf	int$flags,1,c	;clear compiler interrupt flag (level 2)
   243  001EF0  0100               	movlb	0
   244  001EF2  EF06  F00E         	goto	_main	;jump to C main() function
   245                           postinc0	equ	0xFEE
   246                           wreg	equ	0xFE8
   247                           
   248                           	psect	bssCOMRAM
   249  000001                     __pbssCOMRAM:
   250                           	opt stack 0
   251  000001                     _eusart1RxBuffer:
   252                           	opt stack 0
   253  000001                     	ds	8
   254  000009                     _eusart2RxBuffer:
   255                           	opt stack 0
   256  000009                     	ds	8
   257  000011                     _eusart2TxBuffer:
   258                           	opt stack 0
   259  000011                     	ds	8
   260  000019                     _i2c2_object:
   261                           	opt stack 0
   262  000019                     	ds	5
   263  00001E                     I2C2_ISR@pi2c_buf_ptr:
   264                           	opt stack 0
   265  00001E                     	ds	2
   266  000020                     TMR3_ISR@CountCallBack:
   267                           	opt stack 0
   268  000020                     	ds	2
   269  000022                     _p_i2c2_current:
   270                           	opt stack 0
   271  000022                     	ds	2
   272  000024                     _p_i2c2_trb_current:
   273                           	opt stack 0
   274  000024                     	ds	2
   275  000026                     I2C2_ISR@i2c_10bit_address_restart:
   276                           	opt stack 0
   277  000026                     	ds	1
   278  000027                     I2C2_ISR@i2c_bytes_left:
   279                           	opt stack 0
   280  000027                     	ds	1
   281  000028                     _eusart1RxCount:
   282                           	opt stack 0
   283  000028                     	ds	1
   284  000029                     _eusart1RxHead:
   285                           	opt stack 0
   286  000029                     	ds	1
   287  00002A                     _eusart1TxTail:
   288                           	opt stack 0
   289  00002A                     	ds	1
   290  00002B                     _eusart2RxCount:
   291                           	opt stack 0
   292  00002B                     	ds	1
   293  00002C                     _eusart2RxHead:
   294                           	opt stack 0
   295  00002C                     	ds	1
   296  00002D                     _eusart2TxTail:
   297                           	opt stack 0
   298  00002D                     	ds	1
   299  00002E                     _i2c2_state:
   300                           	opt stack 0
   301  00002E                     	ds	1
   302  00002F                     _i2c2_trb_count:
   303                           	opt stack 0
   304  00002F                     	ds	1
   305  000030                     _last_pattern_was_heal:
   306                           	opt stack 0
   307  000030                     	ds	1
   308  000031                     I2C2_MasterRead@trBlock:
   309                           	opt stack 0
   310  000031                     	ds	6
   311  000037                     I2C2_MasterWrite@trBlock:
   312                           	opt stack 0
   313  000037                     	ds	6
   314  00003D                     _i2c2_tr_queue:
   315                           	opt stack 0
   316  00003D                     	ds	5
   317  000042                     I2C2_ISR@i2c_address:
   318                           	opt stack 0
   319  000042                     	ds	2
   320                           postinc0	equ	0xFEE
   321                           wreg	equ	0xFE8
   322                           
   323                           	psect	bssBANK0
   324  000060                     __pbssBANK0:
   325                           	opt stack 0
   326  000060                     _eusart1TxBuffer:
   327                           	opt stack 0
   328  000060                     	ds	8
   329  000068                     	ds	13
   330                           postinc0	equ	0xFEE
   331                           wreg	equ	0xFE8
   332                           
   333                           	psect	cstackBANK0
   334  000075                     __pcstackBANK0:
   335                           	opt stack 0
   336  000075                     ??_clearPattern:
   337  000075                     TMR3_SetInterruptHandler@InterruptHandler:
   338                           	opt stack 0
   339  000075                     delay_25ms_n_times@n:
   340                           	opt stack 0
   341                           
   342                           ; 2 bytes @ 0x0
   343  000075                     	ds	1
   344  000076                     clearPattern@i:
   345                           	opt stack 0
   346                           
   347                           ; 2 bytes @ 0x1
   348  000076                     	ds	1
   349  000077                     ??_delay_25ms_n_times:
   350  000077                     
   351                           ; 1 bytes @ 0x2
   352  000077                     	ds	1
   353  000078                     ??_playStunSelf:
   354  000078                     playDamage@i:
   355                           	opt stack 0
   356  000078                     playArmed@j:
   357                           	opt stack 0
   358  000078                     playElementDamage@j:
   359                           	opt stack 0
   360  000078                     playHeal@i:
   361                           	opt stack 0
   362  000078                     playStun@j:
   363                           	opt stack 0
   364  000078                     playTestPassed@i:
   365                           	opt stack 0
   366  000078                     playTestFailed@i:
   367                           	opt stack 0
   368                           
   369                           ; 2 bytes @ 0x3
   370  000078                     	ds	1
   371  000079                     playArmed@i:
   372                           	opt stack 0
   373  000079                     playElementDamage@i:
   374                           	opt stack 0
   375  000079                     playStun@i:
   376                           	opt stack 0
   377  000079                     playStunSelf@i:
   378                           	opt stack 0
   379                           
   380                           ; 1 bytes @ 0x4
   381  000079                     	ds	1
   382  00007A                     LED_play_pattern@pattern:
   383                           	opt stack 0
   384                           
   385                           ; 1 bytes @ 0x5
   386  00007A                     	ds	1
   387  00007B                     LED_play_pattern@i:
   388                           	opt stack 0
   389                           
   390                           ; 1 bytes @ 0x6
   391  00007B                     	ds	1
   392  00007C                     LED_play_pattern@i_446:
   393                           	opt stack 0
   394                           
   395                           ; 1 bytes @ 0x7
   396  00007C                     	ds	1
   397  00007D                     postinc0	equ	0xFEE
   398                           wreg	equ	0xFE8
   399                           
   400                           ; 1 bytes @ 0x8
   401                           
   402                           	psect	cstackCOMRAM
   403  000044                     __pcstackCOMRAM:
   404                           	opt stack 0
   405  000044                     I2C2_Stop@completion_code:
   406                           	opt stack 0
   407  000044                     i2delay_25ms_n_times@n:
   408                           	opt stack 0
   409                           
   410                           ; 2 bytes @ 0x0
   411  000044                     	ds	1
   412  000045                     ??_I2C2_ISR:
   413                           
   414                           ; 1 bytes @ 0x1
   415  000045                     	ds	1
   416  000046                     ??i2_delay_25ms_n_times:
   417                           
   418                           ; 1 bytes @ 0x2
   419  000046                     	ds	1
   420  000047                     CCP4_CallBack@capturedValue:
   421                           	opt stack 0
   422                           
   423                           ; 2 bytes @ 0x3
   424  000047                     	ds	2
   425  000049                     CCP4_CaptureISR@module:
   426                           	opt stack 0
   427                           
   428                           ; 2 bytes @ 0x5
   429  000049                     	ds	2
   430  00004B                     ??_INTERRUPT_InterruptManager:
   431                           
   432                           ; 1 bytes @ 0x7
   433  00004B                     	ds	4
   434                           postinc0	equ	0xFEE
   435                           wreg	equ	0xFE8
   436                           
   437 ;;
   438 ;;Main: autosize = 0, tempsize = 0, incstack = 0, save=0
   439 ;;
   440 ;; *************** function _main *****************
   441 ;; Defined at:
   442 ;;		line 56 in file "main.c"
   443 ;; Parameters:    Size  Location     Type
   444 ;;		None
   445 ;; Auto vars:     Size  Location     Type
   446 ;;		None
   447 ;; Return value:  Size  Location     Type
   448 ;;                  1    wreg      void 
   449 ;; Registers used:
   450 ;;		wreg, status,2, status,0, cstack
   451 ;; Tracked objects:
   452 ;;		On entry : 0/0
   453 ;;		On exit  : 0/0
   454 ;;		Unchanged: 0/0
   455 ;; Data sizes:     COMRAM   BANK0   BANK1   BANK2   BANK3   BANK4   BANK5   BANK6   BANK7   BANK8   BANK9  BANK10  BANK1
      +1  BANK12  BANK13  BANK14  BANK15
   456 ;;      Params:         0       0       0       0       0       0       0       0       0       0       0       0       
      +0       0       0       0       0
   457 ;;      Locals:         0       0       0       0       0       0       0       0       0       0       0       0       
      +0       0       0       0       0
   458 ;;      Temps:          0       0       0       0       0       0       0       0       0       0       0       0       
      +0       0       0       0       0
   459 ;;      Totals:         0       0       0       0       0       0       0       0       0       0       0       0       
      +0       0       0       0       0
   460 ;;Total ram usage:        0 bytes
   461 ;; Hardware stack levels required when called:    9
   462 ;; This function calls:
   463 ;;		_LED_play_pattern
   464 ;;		_SYSTEM_Initialize
   465 ;;		_delay_25ms_n_times
   466 ;; This function is called by:
   467 ;;		Startup code after reset
   468 ;; This function uses a non-reentrant model
   469 ;;
   470                           
   471                           	psect	text0
   472  001C0C                     __ptext0:
   473                           	opt stack 0
   474  001C0C                     _main:
   475                           	opt stack 22
   476                           
   477                           ;main.c: 58: SYSTEM_Initialize();
   478                           
   479                           ;incstack = 0
   480  001C0C  EC2D  F00E         	call	_SYSTEM_Initialize	;wreg free
   481                           
   482                           ; BSR set to: 15
   483                           ;main.c: 77: (INTCONbits.GIE = 1);
   484  001C10  8EF2               	bsf	intcon,7,c	;volatile
   485                           
   486                           ; BSR set to: 15
   487                           ;main.c: 80: (INTCONbits.PEIE = 1);
   488  001C12  8CF2               	bsf	intcon,6,c	;volatile
   489                           
   490                           ; BSR set to: 15
   491                           ;main.c: 109: ANSELAbits.ANSA0 = 0;
   492  001C14  9138               	bcf	56,0,b	;volatile
   493                           
   494                           ; BSR set to: 15
   495                           ;main.c: 110: TRISAbits.RA0 = 0;
   496  001C16  9092               	bcf	3986,0,c	;volatile
   497                           
   498                           ; BSR set to: 15
   499                           ;main.c: 111: LATAbits.LA0 = 0;
   500  001C18  9089               	bcf	3977,0,c	;volatile
   501                           
   502                           ;main.c: 112: delay_25ms_n_times(5);
   503  001C1A  0E00               	movlw	0
   504  001C1C  0100               	movlb	0	; () banked
   505  001C1E  6F76               	movwf	(delay_25ms_n_times@n+1)& (0+255),b
   506  001C20  0E05               	movlw	5
   507  001C22  6F75               	movwf	delay_25ms_n_times@n& (0+255),b
   508  001C24  EC47  F00E         	call	_delay_25ms_n_times	;wreg free
   509  001C28                     l1247:
   510                           
   511                           ;main.c: 116: LED_play_pattern(LED_ARMED);
   512  001C28  0E00               	movlw	0
   513  001C2A  ECED  F00C         	call	_LED_play_pattern
   514                           
   515                           ;main.c: 117: LED_play_pattern(LED_DAMAGE);
   516  001C2E  0E01               	movlw	1
   517  001C30  ECED  F00C         	call	_LED_play_pattern
   518                           
   519                           ;main.c: 118: LED_play_pattern(LED_ELEMENT_DAMAGE);
   520  001C34  0E02               	movlw	2
   521  001C36  ECED  F00C         	call	_LED_play_pattern
   522                           
   523                           ;main.c: 119: LED_play_pattern(LED_HEAL);
   524  001C3A  0E03               	movlw	3
   525  001C3C  ECED  F00C         	call	_LED_play_pattern
   526                           
   527                           ;main.c: 120: LED_play_pattern(LED_STUN_CAST);
   528  001C40  0E04               	movlw	4
   529  001C42  ECED  F00C         	call	_LED_play_pattern
   530                           
   531                           ;main.c: 121: LED_play_pattern(LED_STUN_SELF);
   532  001C46  0E05               	movlw	5
   533  001C48  ECED  F00C         	call	_LED_play_pattern
   534                           
   535                           ;main.c: 122: LED_play_pattern(LED_SELF_TEST_PASSED);
   536  001C4C  0E06               	movlw	6
   537  001C4E  ECED  F00C         	call	_LED_play_pattern
   538                           
   539                           ;main.c: 123: LED_play_pattern(LED_SELF_TEST_FAILED);
   540  001C52  0E07               	movlw	7
   541  001C54  ECED  F00C         	call	_LED_play_pattern
   542  001C58  D7E7               	goto	l1247
   543  001C5A                     __end_of_main:
   544                           	opt stack 0
   545                           intcon	equ	0xFF2
   546                           postinc0	equ	0xFEE
   547                           wreg	equ	0xFE8
   548                           
   549 ;; *************** function _SYSTEM_Initialize *****************
   550 ;; Defined at:
   551 ;;		line 112 in file "mcc_generated_files/mcc.c"
   552 ;; Parameters:    Size  Location     Type
   553 ;;		None
   554 ;; Auto vars:     Size  Location     Type
   555 ;;		None
   556 ;; Return value:  Size  Location     Type
   557 ;;                  1    wreg      void 
   558 ;; Registers used:
   559 ;;		wreg, status,2, status,0, cstack
   560 ;; Tracked objects:
   561 ;;		On entry : 0/0
   562 ;;		On exit  : F/F
   563 ;;		Unchanged: 0/0
   564 ;; Data sizes:     COMRAM   BANK0   BANK1   BANK2   BANK3   BANK4   BANK5   BANK6   BANK7   BANK8   BANK9  BANK10  BANK1
      +1  BANK12  BANK13  BANK14  BANK15
   565 ;;      Params:         0       0       0       0       0       0       0       0       0       0       0       0       
      +0       0       0       0       0
   566 ;;      Locals:         0       0       0       0       0       0       0       0       0       0       0       0       
      +0       0       0       0       0
   567 ;;      Temps:          0       0       0       0       0       0       0       0       0       0       0       0       
      +0       0       0       0       0
   568 ;;      Totals:         0       0       0       0       0       0       0       0       0       0       0       0       
      +0       0       0       0       0
   569 ;;Total ram usage:        0 bytes
   570 ;; Hardware stack levels used:    1
   571 ;; Hardware stack levels required when called:    6
   572 ;; This function calls:
   573 ;;		_CCP4_Initialize
   574 ;;		_EUSART1_Initialize
   575 ;;		_EUSART2_Initialize
   576 ;;		_I2C2_Initialize
   577 ;;		_INTERRUPT_Initialize
   578 ;;		_OSCILLATOR_Initialize
   579 ;;		_PIN_MANAGER_Initialize
   580 ;;		_PWM5_Initialize
   581 ;;		_SPI1_Initialize
   582 ;;		_TMR1_Initialize
   583 ;;		_TMR2_Initialize
   584 ;;		_TMR3_Initialize
   585 ;;		_TMR4_Initialize
   586 ;; This function is called by:
   587 ;;		_main
   588 ;; This function uses a non-reentrant model
   589 ;;
   590                           
   591                           	psect	text1
   592  001C5A                     __ptext1:
   593                           	opt stack 0
   594  001C5A                     _SYSTEM_Initialize:
   595                           	opt stack 24
   596                           
   597                           ;mcc.c: 115: INTERRUPT_Initialize();
   598                           
   599                           ;incstack = 0
   600  001C5A  ECEB  F00F         	call	_INTERRUPT_Initialize	;wreg free
   601                           
   602                           ;mcc.c: 116: PIN_MANAGER_Initialize();
   603  001C5E  ECE7  F00E         	call	_PIN_MANAGER_Initialize	;wreg free
   604                           
   605                           ; BSR set to: 15
   606                           ;mcc.c: 117: OSCILLATOR_Initialize();
   607  001C62  EC18  F010         	call	_OSCILLATOR_Initialize	;wreg free
   608                           
   609                           ; BSR set to: 15
   610                           ;mcc.c: 118: SPI1_Initialize();
   611  001C66  EC23  F010         	call	_SPI1_Initialize	;wreg free
   612                           
   613                           ; BSR set to: 15
   614                           ;mcc.c: 119: I2C2_Initialize();
   615  001C6A  EC9D  F00F         	call	_I2C2_Initialize	;wreg free
   616                           
   617                           ; BSR set to: 15
   618                           ;mcc.c: 120: CCP4_Initialize();
   619  001C6E  ECFF  F00F         	call	_CCP4_Initialize	;wreg free
   620                           
   621                           ; BSR set to: 15
   622                           ;mcc.c: 121: TMR3_Initialize();
   623  001C72  ECD3  F00E         	call	_TMR3_Initialize	;wreg free
   624                           
   625                           ; BSR set to: 0
   626                           ;mcc.c: 122: TMR4_Initialize();
   627  001C76  EC08  F010         	call	_TMR4_Initialize	;wreg free
   628                           
   629                           ; BSR set to: 15
   630                           ;mcc.c: 123: PWM5_Initialize();
   631  001C7A  ECE1  F00F         	call	_PWM5_Initialize	;wreg free
   632                           
   633                           ; BSR set to: 15
   634                           ;mcc.c: 124: TMR2_Initialize();
   635  001C7E  EC10  F010         	call	_TMR2_Initialize	;wreg free
   636                           
   637                           ; BSR set to: 15
   638                           ;mcc.c: 125: TMR1_Initialize();
   639  001C82  ECD6  F00F         	call	_TMR1_Initialize	;wreg free
   640                           
   641                           ;mcc.c: 126: EUSART1_Initialize();
   642  001C86  EC0F  F00F         	call	_EUSART1_Initialize	;wreg free
   643                           
   644                           ;mcc.c: 127: EUSART2_Initialize();
   645  001C8A  EF22  F00F         	goto	_EUSART2_Initialize	;wreg free
   646  001C8E                     __end_of_SYSTEM_Initialize:
   647                           	opt stack 0
   648                           intcon	equ	0xFF2
   649                           postinc0	equ	0xFEE
   650                           wreg	equ	0xFE8
   651                           
   652 ;; *************** function _TMR4_Initialize *****************
   653 ;; Defined at:
   654 ;;		line 58 in file "mcc_generated_files/tmr4.c"
   655 ;; Parameters:    Size  Location     Type
   656 ;;		None
   657 ;; Auto vars:     Size  Location     Type
   658 ;;		None
   659 ;; Return value:  Size  Location     Type
   660 ;;                  1    wreg      void 
   661 ;; Registers used:
   662 ;;		wreg, status,2, cstack
   663 ;; Tracked objects:
   664 ;;		On entry : E/1
   665 ;;		On exit  : F/F
   666 ;;		Unchanged: 0/0
   667 ;; Data sizes:     COMRAM   BANK0   BANK1   BANK2   BANK3   BANK4   BANK5   BANK6   BANK7   BANK8   BANK9  BANK10  BANK1
      +1  BANK12  BANK13  BANK14  BANK15
   668 ;;      Params:         0       0       0       0       0       0       0       0       0       0       0       0       
      +0       0       0       0       0
   669 ;;      Locals:         0       0       0       0       0       0       0       0       0       0       0       0       
      +0       0       0       0       0
   670 ;;      Temps:          0       0       0       0       0       0       0       0       0       0       0       0       
      +0       0       0       0       0
   671 ;;      Totals:         0       0       0       0       0       0       0       0       0       0       0       0       
      +0       0       0       0       0
   672 ;;Total ram usage:        0 bytes
   673 ;; Hardware stack levels used:    1
   674 ;; Hardware stack levels required when called:    5
   675 ;; This function calls:
   676 ;;		_TMR4_StartTimer
   677 ;; This function is called by:
   678 ;;		_SYSTEM_Initialize
   679 ;; This function uses a non-reentrant model
   680 ;;
   681                           
   682                           	psect	text2
   683  002010                     __ptext2:
   684                           	opt stack 0
   685  002010                     _TMR4_Initialize:
   686                           	opt stack 24
   687                           
   688                           ;tmr4.c: 63: T4CON = 0x00;
   689                           
   690                           ; BSR set to: 15
   691                           ;incstack = 0
   692  002010  010F               	movlb	15	; () banked
   693  002012  6B51               	clrf	81,b	;volatile
   694                           
   695                           ; BSR set to: 15
   696                           ;tmr4.c: 66: PR4 = 0x67;
   697  002014  0E67               	movlw	103
   698  002016  6F52               	movwf	82,b	;volatile
   699                           
   700                           ; BSR set to: 15
   701                           ;tmr4.c: 69: TMR4 = 0x00;
   702  002018  6B53               	clrf	83,b	;volatile
   703                           
   704                           ; BSR set to: 15
   705                           ;tmr4.c: 72: PIR5bits.TMR4IF = 0;
   706  00201A  907E               	bcf	3966,0,c	;volatile
   707                           
   708                           ; BSR set to: 15
   709                           ;tmr4.c: 75: TMR4_StartTimer();
   710  00201C  EF28  F010         	goto	_TMR4_StartTimer	;wreg free
   711  002020                     __end_of_TMR4_Initialize:
   712                           	opt stack 0
   713                           intcon	equ	0xFF2
   714                           postinc0	equ	0xFEE
   715                           wreg	equ	0xFE8
   716                           
   717 ;; *************** function _TMR4_StartTimer *****************
   718 ;; Defined at:
   719 ;;		line 78 in file "mcc_generated_files/tmr4.c"
   720 ;; Parameters:    Size  Location     Type
   721 ;;		None
   722 ;; Auto vars:     Size  Location     Type
   723 ;;		None
   724 ;; Return value:  Size  Location     Type
   725 ;;                  1    wreg      void 
   726 ;; Registers used:
   727 ;;		None
   728 ;; Tracked objects:
   729 ;;		On entry : F/F
   730 ;;		On exit  : F/F
   731 ;;		Unchanged: 0/0
   732 ;; Data sizes:     COMRAM   BANK0   BANK1   BANK2   BANK3   BANK4   BANK5   BANK6   BANK7   BANK8   BANK9  BANK10  BANK1
      +1  BANK12  BANK13  BANK14  BANK15
   733 ;;      Params:         0       0       0       0       0       0       0       0       0       0       0       0       
      +0       0       0       0       0
   734 ;;      Locals:         0       0       0       0       0       0       0       0       0       0       0       0       
      +0       0       0       0       0
   735 ;;      Temps:          0       0       0       0       0       0       0       0       0       0       0       0       
      +0       0       0       0       0
   736 ;;      Totals:         0       0       0       0       0       0       0       0       0       0       0       0       
      +0       0       0       0       0
   737 ;;Total ram usage:        0 bytes
   738 ;; Hardware stack levels used:    1
   739 ;; Hardware stack levels required when called:    4
   740 ;; This function calls:
   741 ;;		Nothing
   742 ;; This function is called by:
   743 ;;		_TMR4_Initialize
   744 ;; This function uses a non-reentrant model
   745 ;;
   746                           
   747                           	psect	text3
   748  002050                     __ptext3:
   749                           	opt stack 0
   750  002050                     _TMR4_StartTimer:
   751                           	opt stack 24
   752                           
   753                           ; BSR set to: 15
   754                           ;tmr4.c: 81: T4CONbits.TMR4ON = 1;
   755                           
   756                           ; BSR set to: 15
   757                           ;incstack = 0
   758  002050  8551               	bsf	81,2,b	;volatile
   759                           
   760                           ; BSR set to: 15
   761  002052  0012               	return		;funcret
   762  002054                     __end_of_TMR4_StartTimer:
   763                           	opt stack 0
   764                           intcon	equ	0xFF2
   765                           postinc0	equ	0xFEE
   766                           wreg	equ	0xFE8
   767                           
   768 ;; *************** function _TMR3_Initialize *****************
   769 ;; Defined at:
   770 ;;		line 63 in file "mcc_generated_files/tmr3.c"
   771 ;; Parameters:    Size  Location     Type
   772 ;;		None
   773 ;; Auto vars:     Size  Location     Type
   774 ;;		None
   775 ;; Return value:  Size  Location     Type
   776 ;;                  1    wreg      void 
   777 ;; Registers used:
   778 ;;		wreg, status,2, status,0, cstack
   779 ;; Tracked objects:
   780 ;;		On entry : F/F
   781 ;;		On exit  : F/0
   782 ;;		Unchanged: 0/0
   783 ;; Data sizes:     COMRAM   BANK0   BANK1   BANK2   BANK3   BANK4   BANK5   BANK6   BANK7   BANK8   BANK9  BANK10  BANK1
      +1  BANK12  BANK13  BANK14  BANK15
   784 ;;      Params:         0       0       0       0       0       0       0       0       0       0       0       0       
      +0       0       0       0       0
   785 ;;      Locals:         0       0       0       0       0       0       0       0       0       0       0       0       
      +0       0       0       0       0
   786 ;;      Temps:          0       0       0       0       0       0       0       0       0       0       0       0       
      +0       0       0       0       0
   787 ;;      Totals:         0       0       0       0       0       0       0       0       0       0       0       0       
      +0       0       0       0       0
   788 ;;Total ram usage:        0 bytes
   789 ;; Hardware stack levels used:    1
   790 ;; Hardware stack levels required when called:    5
   791 ;; This function calls:
   792 ;;		_TMR3_SetInterruptHandler
   793 ;;		_TMR3_StartTimer
   794 ;; This function is called by:
   795 ;;		_SYSTEM_Initialize
   796 ;; This function uses a non-reentrant model
   797 ;;
   798                           
   799                           	psect	text4
   800  001DA6                     __ptext4:
   801                           	opt stack 0
   802  001DA6                     _TMR3_Initialize:
   803                           	opt stack 24
   804                           
   805                           ; BSR set to: 15
   806                           ;tmr3.c: 68: T3CON = 0x00;
   807                           
   808                           ; BSR set to: 15
   809                           ;incstack = 0
   810  001DA6  6AB1               	clrf	4017,c	;volatile
   811                           
   812                           ;tmr3.c: 71: T3GCON = 0x00;
   813  001DA8  6AB4               	clrf	4020,c	;volatile
   814                           
   815                           ;tmr3.c: 74: TMR3H = 0xFF;
   816  001DAA  68B3               	setf	4019,c	;volatile
   817                           
   818                           ; BSR set to: 15
   819                           ;tmr3.c: 77: TMR3L = 0x98;
   820  001DAC  0E98               	movlw	152
   821  001DAE  6EB2               	movwf	4018,c	;volatile
   822                           
   823                           ; BSR set to: 15
   824                           ;tmr3.c: 80: timer3ReloadVal=TMR3;
   825  001DB0  CFB2 F053          	movff	4018,_timer3ReloadVal	;volatile
   826  001DB4  CFB3 F054          	movff	4019,_timer3ReloadVal+1	;volatile
   827                           
   828                           ; BSR set to: 15
   829                           ;tmr3.c: 83: PIR2bits.TMR3IF = 0;
   830  001DB8  92A1               	bcf	4001,1,c	;volatile
   831                           
   832                           ; BSR set to: 15
   833                           ;tmr3.c: 86: PIE2bits.TMR3IE = 1;
   834  001DBA  82A0               	bsf	4000,1,c	;volatile
   835                           
   836                           ; BSR set to: 15
   837                           ;tmr3.c: 89: TMR3_SetInterruptHandler(TMR3_DefaultInterruptHandler);
   838  001DBC  0E60               	movlw	low _TMR3_DefaultInterruptHandler
   839  001DBE  0100               	movlb	0	; () banked
   840  001DC0  6F75               	movwf	TMR3_SetInterruptHandler@InterruptHandler& (0+255),b
   841  001DC2  0E20               	movlw	high _TMR3_DefaultInterruptHandler
   842  001DC4  6F76               	movwf	(TMR3_SetInterruptHandler@InterruptHandler+1)& (0+255),b
   843  001DC6  EC1E  F010         	call	_TMR3_SetInterruptHandler	;wreg free
   844                           
   845                           ; BSR set to: 0
   846                           ;tmr3.c: 92: TMR3_StartTimer();
   847  001DCA  EF2A  F010         	goto	_TMR3_StartTimer	;wreg free
   848  001DCE                     __end_of_TMR3_Initialize:
   849                           	opt stack 0
   850                           intcon	equ	0xFF2
   851                           postinc0	equ	0xFEE
   852                           wreg	equ	0xFE8
   853                           
   854 ;; *************** function _TMR3_StartTimer *****************
   855 ;; Defined at:
   856 ;;		line 95 in file "mcc_generated_files/tmr3.c"
   857 ;; Parameters:    Size  Location     Type
   858 ;;		None
   859 ;; Auto vars:     Size  Location     Type
   860 ;;		None
   861 ;; Return value:  Size  Location     Type
   862 ;;                  1    wreg      void 
   863 ;; Registers used:
   864 ;;		None
   865 ;; Tracked objects:
   866 ;;		On entry : F/0
   867 ;;		On exit  : F/0
   868 ;;		Unchanged: F/0
   869 ;; Data sizes:     COMRAM   BANK0   BANK1   BANK2   BANK3   BANK4   BANK5   BANK6   BANK7   BANK8   BANK9  BANK10  BANK1
      +1  BANK12  BANK13  BANK14  BANK15
   870 ;;      Params:         0       0       0       0       0       0       0       0       0       0       0       0       
      +0       0       0       0       0
   871 ;;      Locals:         0       0       0       0       0       0       0       0       0       0       0       0       
      +0       0       0       0       0
   872 ;;      Temps:          0       0       0       0       0       0       0       0       0       0       0       0       
      +0       0       0       0       0
   873 ;;      Totals:         0       0       0       0       0       0       0       0       0       0       0       0       
      +0       0       0       0       0
   874 ;;Total ram usage:        0 bytes
   875 ;; Hardware stack levels used:    1
   876 ;; Hardware stack levels required when called:    4
   877 ;; This function calls:
   878 ;;		Nothing
   879 ;; This function is called by:
   880 ;;		_TMR3_Initialize
   881 ;; This function uses a non-reentrant model
   882 ;;
   883                           
   884                           	psect	text5
   885  002054                     __ptext5:
   886                           	opt stack 0
   887  002054                     _TMR3_StartTimer:
   888                           	opt stack 24
   889                           
   890                           ; BSR set to: 0
   891                           ;tmr3.c: 98: T3CONbits.TMR3ON = 1;
   892                           
   893                           ; BSR set to: 0
   894                           ;incstack = 0
   895  002054  80B1               	bsf	4017,0,c	;volatile
   896                           
   897                           ; BSR set to: 0
   898  002056  0012               	return		;funcret
   899  002058                     __end_of_TMR3_StartTimer:
   900                           	opt stack 0
   901                           intcon	equ	0xFF2
   902                           postinc0	equ	0xFEE
   903                           wreg	equ	0xFE8
   904                           
   905 ;; *************** function _TMR3_SetInterruptHandler *****************
   906 ;; Defined at:
   907 ;;		line 191 in file "mcc_generated_files/tmr3.c"
   908 ;; Parameters:    Size  Location     Type
   909 ;;  InterruptHan    2    0[BANK0 ] PTR void 
   910 ;;		 -> TMR3_DefaultInterruptHandler(1), 
   911 ;; Auto vars:     Size  Location     Type
   912 ;;		None
   913 ;; Return value:  Size  Location     Type
   914 ;;                  1    wreg      void 
   915 ;; Registers used:
   916 ;;		wreg, status,2, status,0
   917 ;; Tracked objects:
   918 ;;		On entry : F/0
   919 ;;		On exit  : F/0
   920 ;;		Unchanged: F/0
   921 ;; Data sizes:     COMRAM   BANK0   BANK1   BANK2   BANK3   BANK4   BANK5   BANK6   BANK7   BANK8   BANK9  BANK10  BANK1
      +1  BANK12  BANK13  BANK14  BANK15
   922 ;;      Params:         0       2       0       0       0       0       0       0       0       0       0       0       
      +0       0       0       0       0
   923 ;;      Locals:         0       0       0       0       0       0       0       0       0       0       0       0       
      +0       0       0       0       0
   924 ;;      Temps:          0       0       0       0       0       0       0       0       0       0       0       0       
      +0       0       0       0       0
   925 ;;      Totals:         0       2       0       0       0       0       0       0       0       0       0       0       
      +0       0       0       0       0
   926 ;;Total ram usage:        2 bytes
   927 ;; Hardware stack levels used:    1
   928 ;; Hardware stack levels required when called:    4
   929 ;; This function calls:
   930 ;;		Nothing
   931 ;; This function is called by:
   932 ;;		_TMR3_Initialize
   933 ;; This function uses a non-reentrant model
   934 ;;
   935                           
   936                           	psect	text6
   937  00203C                     __ptext6:
   938                           	opt stack 0
   939  00203C                     _TMR3_SetInterruptHandler:
   940                           	opt stack 24
   941                           
   942                           ; BSR set to: 0
   943                           ;tmr3.c: 192: TMR3_InterruptHandler = InterruptHandler;
   944                           
   945                           ; BSR set to: 0
   946                           ;incstack = 0
   947  00203C  C075  F04F         	movff	TMR3_SetInterruptHandler@InterruptHandler,_TMR3_InterruptHandler
   948  002040  C076  F050         	movff	TMR3_SetInterruptHandler@InterruptHandler+1,_TMR3_InterruptHandler+1
   949                           
   950                           ; BSR set to: 0
   951  002044  0012               	return		;funcret
   952  002046                     __end_of_TMR3_SetInterruptHandler:
   953                           	opt stack 0
   954                           intcon	equ	0xFF2
   955                           postinc0	equ	0xFEE
   956                           wreg	equ	0xFE8
   957                           
   958 ;; *************** function _TMR2_Initialize *****************
   959 ;; Defined at:
   960 ;;		line 58 in file "mcc_generated_files/tmr2.c"
   961 ;; Parameters:    Size  Location     Type
   962 ;;		None
   963 ;; Auto vars:     Size  Location     Type
   964 ;;		None
   965 ;; Return value:  Size  Location     Type
   966 ;;                  1    wreg      void 
   967 ;; Registers used:
   968 ;;		wreg, status,2, cstack
   969 ;; Tracked objects:
   970 ;;		On entry : F/F
   971 ;;		On exit  : F/F
   972 ;;		Unchanged: E/0
   973 ;; Data sizes:     COMRAM   BANK0   BANK1   BANK2   BANK3   BANK4   BANK5   BANK6   BANK7   BANK8   BANK9  BANK10  BANK1
      +1  BANK12  BANK13  BANK14  BANK15
   974 ;;      Params:         0       0       0       0       0       0       0       0       0       0       0       0       
      +0       0       0       0       0
   975 ;;      Locals:         0       0       0       0       0       0       0       0       0       0       0       0       
      +0       0       0       0       0
   976 ;;      Temps:          0       0       0       0       0       0       0       0       0       0       0       0       
      +0       0       0       0       0
   977 ;;      Totals:         0       0       0       0       0       0       0       0       0       0       0       0       
      +0       0       0       0       0
   978 ;;Total ram usage:        0 bytes
   979 ;; Hardware stack levels used:    1
   980 ;; Hardware stack levels required when called:    5
   981 ;; This function calls:
   982 ;;		_TMR2_StartTimer
   983 ;; This function is called by:
   984 ;;		_SYSTEM_Initialize
   985 ;; This function uses a non-reentrant model
   986 ;;
   987                           
   988                           	psect	text7
   989  002020                     __ptext7:
   990                           	opt stack 0
   991  002020                     _TMR2_Initialize:
   992                           	opt stack 24
   993                           
   994                           ; BSR set to: 15
   995                           ;tmr2.c: 63: T2CON = 0x02;
   996                           
   997                           ; BSR set to: 0
   998                           ;incstack = 0
   999  002020  0E02               	movlw	2
  1000  002022  6EBA               	movwf	4026,c	;volatile
  1001                           
  1002                           ;tmr2.c: 66: PR2 = 0x63;
  1003  002024  0E63               	movlw	99
  1004  002026  6EBB               	movwf	4027,c	;volatile
  1005                           
  1006                           ; BSR set to: 15
  1007                           ;tmr2.c: 69: TMR2 = 0x00;
  1008  002028  6ABC               	clrf	4028,c	;volatile
  1009                           
  1010                           ; BSR set to: 15
  1011                           ;tmr2.c: 72: PIR1bits.TMR2IF = 0;
  1012  00202A  929E               	bcf	3998,1,c	;volatile
  1013                           
  1014                           ; BSR set to: 15
  1015                           ;tmr2.c: 75: TMR2_StartTimer();
  1016  00202C  EF2C  F010         	goto	_TMR2_StartTimer	;wreg free
  1017  002030                     __end_of_TMR2_Initialize:
  1018                           	opt stack 0
  1019                           intcon	equ	0xFF2
  1020                           postinc0	equ	0xFEE
  1021                           wreg	equ	0xFE8
  1022                           
  1023 ;; *************** function _TMR2_StartTimer *****************
  1024 ;; Defined at:
  1025 ;;		line 78 in file "mcc_generated_files/tmr2.c"
  1026 ;; Parameters:    Size  Location     Type
  1027 ;;		None
  1028 ;; Auto vars:     Size  Location     Type
  1029 ;;		None
  1030 ;; Return value:  Size  Location     Type
  1031 ;;                  1    wreg      void 
  1032 ;; Registers used:
  1033 ;;		None
  1034 ;; Tracked objects:
  1035 ;;		On entry : F/F
  1036 ;;		On exit  : F/F
  1037 ;;		Unchanged: E/0
  1038 ;; Data sizes:     COMRAM   BANK0   BANK1   BANK2   BANK3   BANK4   BANK5   BANK6   BANK7   BANK8   BANK9  BANK10  BANK1
      +1  BANK12  BANK13  BANK14  BANK15
  1039 ;;      Params:         0       0       0       0       0       0       0       0       0       0       0       0       
      +0       0       0       0       0
  1040 ;;      Locals:         0       0       0       0       0       0       0       0       0       0       0       0       
      +0       0       0       0       0
  1041 ;;      Temps:          0       0       0       0       0       0       0       0       0       0       0       0       
      +0       0       0       0       0
  1042 ;;      Totals:         0       0       0       0       0       0       0       0       0       0       0       0       
      +0       0       0       0       0
  1043 ;;Total ram usage:        0 bytes
  1044 ;; Hardware stack levels used:    1
  1045 ;; Hardware stack levels required when called:    4
  1046 ;; This function calls:
  1047 ;;		Nothing
  1048 ;; This function is called by:
  1049 ;;		_TMR2_Initialize
  1050 ;; This function uses a non-reentrant model
  1051 ;;
  1052                           
  1053                           	psect	text8
  1054  002058                     __ptext8:
  1055                           	opt stack 0
  1056  002058                     _TMR2_StartTimer:
  1057                           	opt stack 24
  1058                           
  1059                           ; BSR set to: 15
  1060                           ;tmr2.c: 81: T2CONbits.TMR2ON = 1;
  1061                           
  1062                           ; BSR set to: 15
  1063                           ;incstack = 0
  1064  002058  84BA               	bsf	4026,2,c	;volatile
  1065                           
  1066                           ; BSR set to: 15
  1067  00205A  0012               	return		;funcret
  1068  00205C                     __end_of_TMR2_StartTimer:
  1069                           	opt stack 0
  1070                           intcon	equ	0xFF2
  1071                           postinc0	equ	0xFEE
  1072                           wreg	equ	0xFE8
  1073                           
  1074 ;; *************** function _TMR1_Initialize *****************
  1075 ;; Defined at:
  1076 ;;		line 63 in file "mcc_generated_files/tmr1.c"
  1077 ;; Parameters:    Size  Location     Type
  1078 ;;		None
  1079 ;; Auto vars:     Size  Location     Type
  1080 ;;		None
  1081 ;; Return value:  Size  Location     Type
  1082 ;;                  1    wreg      void 
  1083 ;; Registers used:
  1084 ;;		cstack
  1085 ;; Tracked objects:
  1086 ;;		On entry : F/F
  1087 ;;		On exit  : F/F
  1088 ;;		Unchanged: E/0
  1089 ;; Data sizes:     COMRAM   BANK0   BANK1   BANK2   BANK3   BANK4   BANK5   BANK6   BANK7   BANK8   BANK9  BANK10  BANK1
      +1  BANK12  BANK13  BANK14  BANK15
  1090 ;;      Params:         0       0       0       0       0       0       0       0       0       0       0       0       
      +0       0       0       0       0
  1091 ;;      Locals:         0       0       0       0       0       0       0       0       0       0       0       0       
      +0       0       0       0       0
  1092 ;;      Temps:          0       0       0       0       0       0       0       0       0       0       0       0       
      +0       0       0       0       0
  1093 ;;      Totals:         0       0       0       0       0       0       0       0       0       0       0       0       
      +0       0       0       0       0
  1094 ;;Total ram usage:        0 bytes
  1095 ;; Hardware stack levels used:    1
  1096 ;; Hardware stack levels required when called:    5
  1097 ;; This function calls:
  1098 ;;		_TMR1_StartTimer
  1099 ;; This function is called by:
  1100 ;;		_SYSTEM_Initialize
  1101 ;; This function uses a non-reentrant model
  1102 ;;
  1103                           
  1104                           	psect	text9
  1105  001FAC                     __ptext9:
  1106                           	opt stack 0
  1107  001FAC                     _TMR1_Initialize:
  1108                           	opt stack 24
  1109                           
  1110                           ; BSR set to: 15
  1111                           ;tmr1.c: 68: T1CON = 0x00;
  1112                           
  1113                           ; BSR set to: 15
  1114                           ;incstack = 0
  1115  001FAC  6ACD               	clrf	4045,c	;volatile
  1116                           
  1117                           ;tmr1.c: 71: T1GCON = 0x00;
  1118  001FAE  6ACC               	clrf	4044,c	;volatile
  1119                           
  1120                           ;tmr1.c: 74: TMR1H = 0xFF;
  1121  001FB0  68CF               	setf	4047,c	;volatile
  1122                           
  1123                           ;tmr1.c: 77: TMR1L = 0xFF;
  1124  001FB2  68CE               	setf	4046,c	;volatile
  1125                           
  1126                           ;tmr1.c: 80: timer1ReloadVal=TMR1;
  1127  001FB4  CFCE F051          	movff	4046,_timer1ReloadVal	;volatile
  1128  001FB8  CFCF F052          	movff	4047,_timer1ReloadVal+1	;volatile
  1129                           
  1130                           ;tmr1.c: 83: PIR1bits.TMR1IF = 0;
  1131  001FBC  909E               	bcf	3998,0,c	;volatile
  1132                           
  1133                           ; BSR set to: 15
  1134                           ;tmr1.c: 86: TMR1_StartTimer();
  1135  001FBE  EF2E  F010         	goto	_TMR1_StartTimer	;wreg free
  1136  001FC2                     __end_of_TMR1_Initialize:
  1137                           	opt stack 0
  1138                           intcon	equ	0xFF2
  1139                           postinc0	equ	0xFEE
  1140                           wreg	equ	0xFE8
  1141                           
  1142 ;; *************** function _TMR1_StartTimer *****************
  1143 ;; Defined at:
  1144 ;;		line 89 in file "mcc_generated_files/tmr1.c"
  1145 ;; Parameters:    Size  Location     Type
  1146 ;;		None
  1147 ;; Auto vars:     Size  Location     Type
  1148 ;;		None
  1149 ;; Return value:  Size  Location     Type
  1150 ;;                  1    wreg      void 
  1151 ;; Registers used:
  1152 ;;		None
  1153 ;; Tracked objects:
  1154 ;;		On entry : F/F
  1155 ;;		On exit  : F/F
  1156 ;;		Unchanged: E/0
  1157 ;; Data sizes:     COMRAM   BANK0   BANK1   BANK2   BANK3   BANK4   BANK5   BANK6   BANK7   BANK8   BANK9  BANK10  BANK1
      +1  BANK12  BANK13  BANK14  BANK15
  1158 ;;      Params:         0       0       0       0       0       0       0       0       0       0       0       0       
      +0       0       0       0       0
  1159 ;;      Locals:         0       0       0       0       0       0       0       0       0       0       0       0       
      +0       0       0       0       0
  1160 ;;      Temps:          0       0       0       0       0       0       0       0       0       0       0       0       
      +0       0       0       0       0
  1161 ;;      Totals:         0       0       0       0       0       0       0       0       0       0       0       0       
      +0       0       0       0       0
  1162 ;;Total ram usage:        0 bytes
  1163 ;; Hardware stack levels used:    1
  1164 ;; Hardware stack levels required when called:    4
  1165 ;; This function calls:
  1166 ;;		Nothing
  1167 ;; This function is called by:
  1168 ;;		_TMR1_Initialize
  1169 ;; This function uses a non-reentrant model
  1170 ;;
  1171                           
  1172                           	psect	text10
  1173  00205C                     __ptext10:
  1174                           	opt stack 0
  1175  00205C                     _TMR1_StartTimer:
  1176                           	opt stack 24
  1177                           
  1178                           ; BSR set to: 15
  1179                           ;tmr1.c: 92: T1CONbits.TMR1ON = 1;
  1180                           
  1181                           ; BSR set to: 15
  1182                           ;incstack = 0
  1183  00205C  80CD               	bsf	4045,0,c	;volatile
  1184                           
  1185                           ; BSR set to: 15
  1186  00205E  0012               	return		;funcret
  1187  002060                     __end_of_TMR1_StartTimer:
  1188                           	opt stack 0
  1189                           intcon	equ	0xFF2
  1190                           postinc0	equ	0xFEE
  1191                           wreg	equ	0xFE8
  1192                           
  1193 ;; *************** function _SPI1_Initialize *****************
  1194 ;; Defined at:
  1195 ;;		line 64 in file "mcc_generated_files/spi1.c"
  1196 ;; Parameters:    Size  Location     Type
  1197 ;;		None
  1198 ;; Auto vars:     Size  Location     Type
  1199 ;;		None
  1200 ;; Return value:  Size  Location     Type
  1201 ;;                  1    wreg      void 
  1202 ;; Registers used:
  1203 ;;		wreg, status,2
  1204 ;; Tracked objects:
  1205 ;;		On entry : F/F
  1206 ;;		On exit  : F/F
  1207 ;;		Unchanged: E/0
  1208 ;; Data sizes:     COMRAM   BANK0   BANK1   BANK2   BANK3   BANK4   BANK5   BANK6   BANK7   BANK8   BANK9  BANK10  BANK1
      +1  BANK12  BANK13  BANK14  BANK15
  1209 ;;      Params:         0       0       0       0       0       0       0       0       0       0       0       0       
      +0       0       0       0       0
  1210 ;;      Locals:         0       0       0       0       0       0       0       0       0       0       0       0       
      +0       0       0       0       0
  1211 ;;      Temps:          0       0       0       0       0       0       0       0       0       0       0       0       
      +0       0       0       0       0
  1212 ;;      Totals:         0       0       0       0       0       0       0       0       0       0       0       0       
      +0       0       0       0       0
  1213 ;;Total ram usage:        0 bytes
  1214 ;; Hardware stack levels used:    1
  1215 ;; Hardware stack levels required when called:    4
  1216 ;; This function calls:
  1217 ;;		Nothing
  1218 ;; This function is called by:
  1219 ;;		_SYSTEM_Initialize
  1220 ;; This function uses a non-reentrant model
  1221 ;;
  1222                           
  1223                           	psect	text11
  1224  002046                     __ptext11:
  1225                           	opt stack 0
  1226  002046                     _SPI1_Initialize:
  1227                           	opt stack 25
  1228                           
  1229                           ; BSR set to: 15
  1230                           ;spi1.c: 69: SSP1STAT = 0x00;
  1231                           
  1232                           ; BSR set to: 15
  1233                           ;incstack = 0
  1234  002046  6AC7               	clrf	4039,c	;volatile
  1235                           
  1236                           ; BSR set to: 15
  1237                           ;spi1.c: 72: SSP1CON1 = 0x33;
  1238  002048  0E33               	movlw	51
  1239  00204A  6EC6               	movwf	4038,c	;volatile
  1240                           
  1241                           ; BSR set to: 15
  1242                           ;spi1.c: 75: SSP1ADD = 0x00;
  1243  00204C  6AC8               	clrf	4040,c	;volatile
  1244                           
  1245                           ; BSR set to: 15
  1246  00204E  0012               	return		;funcret
  1247  002050                     __end_of_SPI1_Initialize:
  1248                           	opt stack 0
  1249                           intcon	equ	0xFF2
  1250                           postinc0	equ	0xFEE
  1251                           wreg	equ	0xFE8
  1252                           
  1253 ;; *************** function _PWM5_Initialize *****************
  1254 ;; Defined at:
  1255 ;;		line 64 in file "mcc_generated_files/pwm5.c"
  1256 ;; Parameters:    Size  Location     Type
  1257 ;;		None
  1258 ;; Auto vars:     Size  Location     Type
  1259 ;;		None
  1260 ;; Return value:  Size  Location     Type
  1261 ;;                  1    wreg      void 
  1262 ;; Registers used:
  1263 ;;		wreg, status,2
  1264 ;; Tracked objects:
  1265 ;;		On entry : F/F
  1266 ;;		On exit  : F/F
  1267 ;;		Unchanged: 0/0
  1268 ;; Data sizes:     COMRAM   BANK0   BANK1   BANK2   BANK3   BANK4   BANK5   BANK6   BANK7   BANK8   BANK9  BANK10  BANK1
      +1  BANK12  BANK13  BANK14  BANK15
  1269 ;;      Params:         0       0       0       0       0       0       0       0       0       0       0       0       
      +0       0       0       0       0
  1270 ;;      Locals:         0       0       0       0       0       0       0       0       0       0       0       0       
      +0       0       0       0       0
  1271 ;;      Temps:          0       0       0       0       0       0       0       0       0       0       0       0       
      +0       0       0       0       0
  1272 ;;      Totals:         0       0       0       0       0       0       0       0       0       0       0       0       
      +0       0       0       0       0
  1273 ;;Total ram usage:        0 bytes
  1274 ;; Hardware stack levels used:    1
  1275 ;; Hardware stack levels required when called:    4
  1276 ;; This function calls:
  1277 ;;		Nothing
  1278 ;; This function is called by:
  1279 ;;		_SYSTEM_Initialize
  1280 ;; This function uses a non-reentrant model
  1281 ;;
  1282                           
  1283                           	psect	text12
  1284  001FC2                     __ptext12:
  1285                           	opt stack 0
  1286  001FC2                     _PWM5_Initialize:
  1287                           	opt stack 25
  1288                           
  1289                           ; BSR set to: 15
  1290                           ;pwm5.c: 69: CCP5CON = 0x3C;
  1291                           
  1292                           ; BSR set to: 15
  1293                           ;incstack = 0
  1294  001FC2  0E3C               	movlw	60
  1295  001FC4  6F54               	movwf	84,b	;volatile
  1296                           
  1297                           ;pwm5.c: 72: CCPR5L = 0x1E;
  1298  001FC6  0E1E               	movlw	30
  1299  001FC8  6F55               	movwf	85,b	;volatile
  1300                           
  1301                           ; BSR set to: 15
  1302                           ;pwm5.c: 75: CCPR5H = 0x00;
  1303  001FCA  6B56               	clrf	86,b	;volatile
  1304                           
  1305                           ;pwm5.c: 78: CCPTMRS1bits.C5TSEL = 0x1;
  1306  001FCC  5148               	movf	72,w,b	;volatile
  1307  001FCE  0BF3               	andlw	-13
  1308  001FD0  0904               	iorlw	4
  1309  001FD2  6F48               	movwf	72,b	;volatile
  1310                           
  1311                           ; BSR set to: 15
  1312  001FD4  0012               	return		;funcret
  1313  001FD6                     __end_of_PWM5_Initialize:
  1314                           	opt stack 0
  1315                           intcon	equ	0xFF2
  1316                           postinc0	equ	0xFEE
  1317                           wreg	equ	0xFE8
  1318                           
  1319 ;; *************** function _PIN_MANAGER_Initialize *****************
  1320 ;; Defined at:
  1321 ;;		line 49 in file "mcc_generated_files/pin_manager.c"
  1322 ;; Parameters:    Size  Location     Type
  1323 ;;		None
  1324 ;; Auto vars:     Size  Location     Type
  1325 ;;		None
  1326 ;; Return value:  Size  Location     Type
  1327 ;;                  1    wreg      void 
  1328 ;; Registers used:
  1329 ;;		wreg, status,2
  1330 ;; Tracked objects:
  1331 ;;		On entry : 0/0
  1332 ;;		On exit  : F/F
  1333 ;;		Unchanged: 0/0
  1334 ;; Data sizes:     COMRAM   BANK0   BANK1   BANK2   BANK3   BANK4   BANK5   BANK6   BANK7   BANK8   BANK9  BANK10  BANK1
      +1  BANK12  BANK13  BANK14  BANK15
  1335 ;;      Params:         0       0       0       0       0       0       0       0       0       0       0       0       
      +0       0       0       0       0
  1336 ;;      Locals:         0       0       0       0       0       0       0       0       0       0       0       0       
      +0       0       0       0       0
  1337 ;;      Temps:          0       0       0       0       0       0       0       0       0       0       0       0       
      +0       0       0       0       0
  1338 ;;      Totals:         0       0       0       0       0       0       0       0       0       0       0       0       
      +0       0       0       0       0
  1339 ;;Total ram usage:        0 bytes
  1340 ;; Hardware stack levels used:    1
  1341 ;; Hardware stack levels required when called:    4
  1342 ;; This function calls:
  1343 ;;		Nothing
  1344 ;; This function is called by:
  1345 ;;		_SYSTEM_Initialize
  1346 ;; This function uses a non-reentrant model
  1347 ;;
  1348                           
  1349                           	psect	text13
  1350  001DCE                     __ptext13:
  1351                           	opt stack 0
  1352  001DCE                     _PIN_MANAGER_Initialize:
  1353                           	opt stack 25
  1354                           
  1355                           ;pin_manager.c: 51: LATB = 0x1;
  1356                           
  1357                           ; BSR set to: 15
  1358                           ;incstack = 0
  1359  001DCE  0E01               	movlw	1
  1360  001DD0  6E8A               	movwf	3978,c	;volatile
  1361                           
  1362                           ;pin_manager.c: 52: LATA = 0x0;
  1363  001DD2  6A89               	clrf	3977,c	;volatile
  1364                           
  1365                           ;pin_manager.c: 53: LATC = 0x0;
  1366  001DD4  6A8B               	clrf	3979,c	;volatile
  1367                           
  1368                           ;pin_manager.c: 54: ANSELA = 0xE;
  1369  001DD6  0E0E               	movlw	14
  1370  001DD8  010F               	movlb	15	; () banked
  1371  001DDA  6F38               	movwf	56,b	;volatile
  1372                           
  1373                           ; BSR set to: 15
  1374                           ;pin_manager.c: 55: ANSELB = 0x0;
  1375  001DDC  6B39               	clrf	57,b	;volatile
  1376                           
  1377                           ; BSR set to: 15
  1378                           ;pin_manager.c: 56: ANSELC = 0x0;
  1379  001DDE  6B3A               	clrf	58,b	;volatile
  1380                           
  1381                           ;pin_manager.c: 57: TRISB = 0xCE;
  1382  001DE0  0ECE               	movlw	206
  1383  001DE2  6E93               	movwf	3987,c	;volatile
  1384                           
  1385                           ;pin_manager.c: 58: TRISC = 0xD1;
  1386  001DE4  0ED1               	movlw	209
  1387  001DE6  6E94               	movwf	3988,c	;volatile
  1388                           
  1389                           ;pin_manager.c: 59: WPUB = 0x16;
  1390  001DE8  0E16               	movlw	22
  1391  001DEA  6E61               	movwf	3937,c	;volatile
  1392                           
  1393                           ;pin_manager.c: 60: TRISA = 0xEF;
  1394  001DEC  0EEF               	movlw	239
  1395  001DEE  6E92               	movwf	3986,c	;volatile
  1396                           
  1397                           ; BSR set to: 15
  1398                           ;pin_manager.c: 62: INTCON2bits.nRBPU = 0x0;
  1399  001DF0  9EF1               	bcf	intcon2,7,c	;volatile
  1400                           
  1401                           ; BSR set to: 15
  1402                           ;pin_manager.c: 66: INTCONbits.RBIE = 0;
  1403  001DF2  96F2               	bcf	intcon,3,c	;volatile
  1404                           
  1405                           ; BSR set to: 15
  1406  001DF4  0CEF               	retlw	239	;funcret
  1407  001DF6                     __end_of_PIN_MANAGER_Initialize:
  1408                           	opt stack 0
  1409                           intcon	equ	0xFF2
  1410                           intcon2	equ	0xFF1
  1411                           postinc0	equ	0xFEE
  1412                           wreg	equ	0xFE8
  1413                           
  1414 ;; *************** function _OSCILLATOR_Initialize *****************
  1415 ;; Defined at:
  1416 ;;		line 130 in file "mcc_generated_files/mcc.c"
  1417 ;; Parameters:    Size  Location     Type
  1418 ;;		None
  1419 ;; Auto vars:     Size  Location     Type
  1420 ;;		None
  1421 ;; Return value:  Size  Location     Type
  1422 ;;                  1    wreg      void 
  1423 ;; Registers used:
  1424 ;;		wreg, status,2
  1425 ;; Tracked objects:
  1426 ;;		On entry : F/F
  1427 ;;		On exit  : F/F
  1428 ;;		Unchanged: E/0
  1429 ;; Data sizes:     COMRAM   BANK0   BANK1   BANK2   BANK3   BANK4   BANK5   BANK6   BANK7   BANK8   BANK9  BANK10  BANK1
      +1  BANK12  BANK13  BANK14  BANK15
  1430 ;;      Params:         0       0       0       0       0       0       0       0       0       0       0       0       
      +0       0       0       0       0
  1431 ;;      Locals:         0       0       0       0       0       0       0       0       0       0       0       0       
      +0       0       0       0       0
  1432 ;;      Temps:          0       0       0       0       0       0       0       0       0       0       0       0       
      +0       0       0       0       0
  1433 ;;      Totals:         0       0       0       0       0       0       0       0       0       0       0       0       
      +0       0       0       0       0
  1434 ;;Total ram usage:        0 bytes
  1435 ;; Hardware stack levels used:    1
  1436 ;; Hardware stack levels required when called:    4
  1437 ;; This function calls:
  1438 ;;		Nothing
  1439 ;; This function is called by:
  1440 ;;		_SYSTEM_Initialize
  1441 ;; This function uses a non-reentrant model
  1442 ;;
  1443                           
  1444                           	psect	text14
  1445  002030                     __ptext14:
  1446                           	opt stack 0
  1447  002030                     _OSCILLATOR_Initialize:
  1448                           	opt stack 25
  1449                           
  1450                           ; BSR set to: 15
  1451                           ;mcc.c: 133: OSCCON = 0x72;
  1452                           
  1453                           ; BSR set to: 15
  1454                           ;incstack = 0
  1455  002030  0E72               	movlw	114
  1456  002032  6ED3               	movwf	4051,c	;volatile
  1457                           
  1458                           ;mcc.c: 135: OSCCON2 = 0x04;
  1459  002034  0E04               	movlw	4
  1460  002036  6ED2               	movwf	4050,c	;volatile
  1461                           
  1462                           ; BSR set to: 15
  1463                           ;mcc.c: 137: OSCTUNE = 0x00;
  1464  002038  6A9B               	clrf	3995,c	;volatile
  1465                           
  1466                           ; BSR set to: 15
  1467  00203A  0012               	return		;funcret
  1468  00203C                     __end_of_OSCILLATOR_Initialize:
  1469                           	opt stack 0
  1470                           intcon	equ	0xFF2
  1471                           intcon2	equ	0xFF1
  1472                           postinc0	equ	0xFEE
  1473                           wreg	equ	0xFE8
  1474                           
  1475 ;; *************** function _INTERRUPT_Initialize *****************
  1476 ;; Defined at:
  1477 ;;		line 52 in file "mcc_generated_files/interrupt_manager.c"
  1478 ;; Parameters:    Size  Location     Type
  1479 ;;		None
  1480 ;; Auto vars:     Size  Location     Type
  1481 ;;		None
  1482 ;; Return value:  Size  Location     Type
  1483 ;;                  1    wreg      void 
  1484 ;; Registers used:
  1485 ;;		None
  1486 ;; Tracked objects:
  1487 ;;		On entry : 0/0
  1488 ;;		On exit  : 0/0
  1489 ;;		Unchanged: 0/0
  1490 ;; Data sizes:     COMRAM   BANK0   BANK1   BANK2   BANK3   BANK4   BANK5   BANK6   BANK7   BANK8   BANK9  BANK10  BANK1
      +1  BANK12  BANK13  BANK14  BANK15
  1491 ;;      Params:         0       0       0       0       0       0       0       0       0       0       0       0       
      +0       0       0       0       0
  1492 ;;      Locals:         0       0       0       0       0       0       0       0       0       0       0       0       
      +0       0       0       0       0
  1493 ;;      Temps:          0       0       0       0       0       0       0       0       0       0       0       0       
      +0       0       0       0       0
  1494 ;;      Totals:         0       0       0       0       0       0       0       0       0       0       0       0       
      +0       0       0       0       0
  1495 ;;Total ram usage:        0 bytes
  1496 ;; Hardware stack levels used:    1
  1497 ;; Hardware stack levels required when called:    4
  1498 ;; This function calls:
  1499 ;;		Nothing
  1500 ;; This function is called by:
  1501 ;;		_SYSTEM_Initialize
  1502 ;; This function uses a non-reentrant model
  1503 ;;
  1504                           
  1505                           	psect	text15
  1506  001FD6                     __ptext15:
  1507                           	opt stack 0
  1508  001FD6                     _INTERRUPT_Initialize:
  1509                           	opt stack 25
  1510                           
  1511                           ;interrupt_manager.c: 55: RCONbits.IPEN = 0;
  1512                           
  1513                           ; BSR set to: 15
  1514                           ;incstack = 0
  1515  001FD6  9ED0               	bcf	4048,7,c	;volatile
  1516                           
  1517                           ;interrupt_manager.c: 60: IPR3bits.BCL2IP = 0;
  1518  001FD8  9CA5               	bcf	4005,6,c	;volatile
  1519                           
  1520                           ;interrupt_manager.c: 62: IPR3bits.SSP2IP = 0;
  1521  001FDA  9EA5               	bcf	4005,7,c	;volatile
  1522                           
  1523                           ;interrupt_manager.c: 64: IPR3bits.TX2IP = 0;
  1524  001FDC  98A5               	bcf	4005,4,c	;volatile
  1525                           
  1526                           ;interrupt_manager.c: 66: IPR3bits.RC2IP = 0;
  1527  001FDE  9AA5               	bcf	4005,5,c	;volatile
  1528                           
  1529                           ;interrupt_manager.c: 68: IPR4bits.CCP4IP = 0;
  1530  001FE0  927C               	bcf	3964,1,c	;volatile
  1531                           
  1532                           ;interrupt_manager.c: 70: IPR1bits.TX1IP = 0;
  1533  001FE2  989F               	bcf	3999,4,c	;volatile
  1534                           
  1535                           ;interrupt_manager.c: 72: IPR1bits.RC1IP = 0;
  1536  001FE4  9A9F               	bcf	3999,5,c	;volatile
  1537                           
  1538                           ;interrupt_manager.c: 74: IPR2bits.TMR3IP = 0;
  1539  001FE6  92A2               	bcf	4002,1,c	;volatile
  1540  001FE8  0012               	return		;funcret
  1541  001FEA                     __end_of_INTERRUPT_Initialize:
  1542                           	opt stack 0
  1543                           intcon	equ	0xFF2
  1544                           intcon2	equ	0xFF1
  1545                           postinc0	equ	0xFEE
  1546                           wreg	equ	0xFE8
  1547                           
  1548 ;; *************** function _I2C2_Initialize *****************
  1549 ;; Defined at:
  1550 ;;		line 199 in file "mcc_generated_files/i2c2.c"
  1551 ;; Parameters:    Size  Location     Type
  1552 ;;		None
  1553 ;; Auto vars:     Size  Location     Type
  1554 ;;		None
  1555 ;; Return value:  Size  Location     Type
  1556 ;;                  1    wreg      void 
  1557 ;; Registers used:
  1558 ;;		wreg, status,2, status,0
  1559 ;; Tracked objects:
  1560 ;;		On entry : F/F
  1561 ;;		On exit  : F/F
  1562 ;;		Unchanged: E/0
  1563 ;; Data sizes:     COMRAM   BANK0   BANK1   BANK2   BANK3   BANK4   BANK5   BANK6   BANK7   BANK8   BANK9  BANK10  BANK1
      +1  BANK12  BANK13  BANK14  BANK15
  1564 ;;      Params:         0       0       0       0       0       0       0       0       0       0       0       0       
      +0       0       0       0       0
  1565 ;;      Locals:         0       0       0       0       0       0       0       0       0       0       0       0       
      +0       0       0       0       0
  1566 ;;      Temps:          0       0       0       0       0       0       0       0       0       0       0       0       
      +0       0       0       0       0
  1567 ;;      Totals:         0       0       0       0       0       0       0       0       0       0       0       0       
      +0       0       0       0       0
  1568 ;;Total ram usage:        0 bytes
  1569 ;; Hardware stack levels used:    1
  1570 ;; Hardware stack levels required when called:    4
  1571 ;; This function calls:
  1572 ;;		Nothing
  1573 ;; This function is called by:
  1574 ;;		_SYSTEM_Initialize
  1575 ;; This function uses a non-reentrant model
  1576 ;;
  1577                           
  1578                           	psect	text16
  1579  001F3A                     __ptext16:
  1580                           	opt stack 0
  1581  001F3A                     _I2C2_Initialize:
  1582                           	opt stack 25
  1583                           
  1584                           ; BSR set to: 15
  1585                           ;i2c2.c: 201: i2c2_object.pTrHead = i2c2_tr_queue;
  1586                           
  1587                           ;incstack = 0
  1588  001F3A  0E3D               	movlw	low _i2c2_tr_queue
  1589  001F3C  6E1A               	movwf	_i2c2_object+1,c
  1590                           
  1591                           ;i2c2.c: 202: i2c2_object.pTrTail = i2c2_tr_queue;
  1592  001F3E  6E19               	movwf	_i2c2_object,c
  1593                           
  1594                           ; BSR set to: 15
  1595                           ;i2c2.c: 203: i2c2_object.trStatus.s.empty = 1;
  1596  001F40  821B               	bsf	_i2c2_object+2,1,c
  1597                           
  1598                           ; BSR set to: 15
  1599                           ;i2c2.c: 204: i2c2_object.trStatus.s.full = 0;
  1600  001F42  901B               	bcf	_i2c2_object+2,0,c
  1601                           
  1602                           ; BSR set to: 15
  1603                           ;i2c2.c: 206: i2c2_object.i2cErrors = 0;
  1604  001F44  6A1D               	clrf	_i2c2_object+4,c
  1605                           
  1606                           ; BSR set to: 15
  1607                           ;i2c2.c: 209: SSP2STAT = 0x40;
  1608  001F46  0E40               	movlw	64
  1609  001F48  6E6D               	movwf	3949,c	;volatile
  1610                           
  1611                           ; BSR set to: 15
  1612                           ;i2c2.c: 211: SSP2CON1 = 0x28;
  1613  001F4A  0E28               	movlw	40
  1614  001F4C  6E6C               	movwf	3948,c	;volatile
  1615                           
  1616                           ; BSR set to: 15
  1617                           ;i2c2.c: 213: SSP2CON3 = 0x00;
  1618  001F4E  6A69               	clrf	3945,c	;volatile
  1619                           
  1620                           ; BSR set to: 15
  1621                           ;i2c2.c: 215: SSP2ADD = 0x09;
  1622  001F50  0E09               	movlw	9
  1623  001F52  6E6E               	movwf	3950,c	;volatile
  1624                           
  1625                           ; BSR set to: 15
  1626                           ;i2c2.c: 219: PIR3bits.SSP2IF = 0;
  1627  001F54  9EA4               	bcf	4004,7,c	;volatile
  1628                           
  1629                           ; BSR set to: 15
  1630                           ;i2c2.c: 221: PIE3bits.SSP2IE = 1;
  1631  001F56  8EA3               	bsf	4003,7,c	;volatile
  1632                           
  1633                           ; BSR set to: 15
  1634  001F58  0C09               	retlw	9	;funcret
  1635  001F5A                     __end_of_I2C2_Initialize:
  1636                           	opt stack 0
  1637                           intcon	equ	0xFF2
  1638                           intcon2	equ	0xFF1
  1639                           postinc0	equ	0xFEE
  1640                           wreg	equ	0xFE8
  1641                           
  1642 ;; *************** function _EUSART2_Initialize *****************
  1643 ;; Defined at:
  1644 ;;		line 76 in file "mcc_generated_files/eusart2.c"
  1645 ;; Parameters:    Size  Location     Type
  1646 ;;		None
  1647 ;; Auto vars:     Size  Location     Type
  1648 ;;		None
  1649 ;; Return value:  Size  Location     Type
  1650 ;;                  1    wreg      void 
  1651 ;; Registers used:
  1652 ;;		wreg, status,2
  1653 ;; Tracked objects:
  1654 ;;		On entry : F/F
  1655 ;;		On exit  : F/F
  1656 ;;		Unchanged: E/0
  1657 ;; Data sizes:     COMRAM   BANK0   BANK1   BANK2   BANK3   BANK4   BANK5   BANK6   BANK7   BANK8   BANK9  BANK10  BANK1
      +1  BANK12  BANK13  BANK14  BANK15
  1658 ;;      Params:         0       0       0       0       0       0       0       0       0       0       0       0       
      +0       0       0       0       0
  1659 ;;      Locals:         0       0       0       0       0       0       0       0       0       0       0       0       
      +0       0       0       0       0
  1660 ;;      Temps:          0       0       0       0       0       0       0       0       0       0       0       0       
      +0       0       0       0       0
  1661 ;;      Totals:         0       0       0       0       0       0       0       0       0       0       0       0       
      +0       0       0       0       0
  1662 ;;Total ram usage:        0 bytes
  1663 ;; Hardware stack levels used:    1
  1664 ;; Hardware stack levels required when called:    4
  1665 ;; This function calls:
  1666 ;;		Nothing
  1667 ;; This function is called by:
  1668 ;;		_SYSTEM_Initialize
  1669 ;; This function uses a non-reentrant model
  1670 ;;
  1671                           
  1672                           	psect	text17
  1673  001E44                     __ptext17:
  1674                           	opt stack 0
  1675  001E44                     _EUSART2_Initialize:
  1676                           	opt stack 25
  1677                           
  1678                           ; BSR set to: 15
  1679                           ;eusart2.c: 79: PIE3bits.RC2IE = 0;
  1680                           
  1681                           ; BSR set to: 15
  1682                           ;incstack = 0
  1683  001E44  9AA3               	bcf	4003,5,c	;volatile
  1684                           
  1685                           ;eusart2.c: 80: PIE3bits.TX2IE = 0;
  1686  001E46  98A3               	bcf	4003,4,c	;volatile
  1687                           
  1688                           ; BSR set to: 15
  1689                           ;eusart2.c: 85: BAUDCON2 = 0x08;
  1690  001E48  0E08               	movlw	8
  1691  001E4A  6E70               	movwf	3952,c	;volatile
  1692                           
  1693                           ;eusart2.c: 88: RCSTA2 = 0x90;
  1694  001E4C  0E90               	movlw	144
  1695  001E4E  6E71               	movwf	3953,c	;volatile
  1696                           
  1697                           ;eusart2.c: 91: TXSTA2 = 0x24;
  1698  001E50  0E24               	movlw	36
  1699  001E52  6E72               	movwf	3954,c	;volatile
  1700                           
  1701                           ;eusart2.c: 94: SPBRG2 = 0x22;
  1702  001E54  0E22               	movlw	34
  1703  001E56  6E75               	movwf	3957,c	;volatile
  1704                           
  1705                           ; BSR set to: 15
  1706                           ;eusart2.c: 101: eusart2TxHead = 0;
  1707  001E58  6A76               	clrf	3958,c	;volatile
  1708                           
  1709                           ; BSR set to: 15
  1710                           ;eusart2.c: 102: eusart2TxTail = 0;
  1711  001E5A  6A2D               	clrf	_eusart2TxTail,c
  1712                           
  1713                           ;eusart2.c: 103: eusart2TxBufferRemaining = sizeof(eusart2TxBuffer);
  1714  001E5C  0E08               	movlw	8
  1715  001E5E  6E56               	movwf	_eusart2TxBufferRemaining,c	;volatile
  1716                           
  1717                           ; BSR set to: 15
  1718                           ;eusart2.c: 106: eusart2RxTail = 0;
  1719  001E60  6A2C               	clrf	_eusart2RxHead,c
  1720                           
  1721                           ; BSR set to: 15
  1722                           ;eusart2.c: 107: eusart2RxCount = 0;
  1723  001E62  6A2B               	clrf	_eusart2RxCount,c	;volatile
  1724                           
  1725                           ; BSR set to: 15
  1726                           ;eusart2.c: 110: PIE3bits.RC2IE = 1;
  1727  001E64  8AA3               	bsf	4003,5,c	;volatile
  1728                           
  1729                           ; BSR set to: 15
  1730  001E66  0012               	return		;funcret
  1731  001E68                     __end_of_EUSART2_Initialize:
  1732                           	opt stack 0
  1733                           intcon	equ	0xFF2
  1734                           intcon2	equ	0xFF1
  1735                           postinc0	equ	0xFEE
  1736                           wreg	equ	0xFE8
  1737                           
  1738 ;; *************** function _EUSART1_Initialize *****************
  1739 ;; Defined at:
  1740 ;;		line 77 in file "mcc_generated_files/eusart1.c"
  1741 ;; Parameters:    Size  Location     Type
  1742 ;;		None
  1743 ;; Auto vars:     Size  Location     Type
  1744 ;;		None
  1745 ;; Return value:  Size  Location     Type
  1746 ;;                  1    wreg      void 
  1747 ;; Registers used:
  1748 ;;		wreg, status,2
  1749 ;; Tracked objects:
  1750 ;;		On entry : F/F
  1751 ;;		On exit  : F/F
  1752 ;;		Unchanged: E/0
  1753 ;; Data sizes:     COMRAM   BANK0   BANK1   BANK2   BANK3   BANK4   BANK5   BANK6   BANK7   BANK8   BANK9  BANK10  BANK1
      +1  BANK12  BANK13  BANK14  BANK15
  1754 ;;      Params:         0       0       0       0       0       0       0       0       0       0       0       0       
      +0       0       0       0       0
  1755 ;;      Locals:         0       0       0       0       0       0       0       0       0       0       0       0       
      +0       0       0       0       0
  1756 ;;      Temps:          0       0       0       0       0       0       0       0       0       0       0       0       
      +0       0       0       0       0
  1757 ;;      Totals:         0       0       0       0       0       0       0       0       0       0       0       0       
      +0       0       0       0       0
  1758 ;;Total ram usage:        0 bytes
  1759 ;; Hardware stack levels used:    1
  1760 ;; Hardware stack levels required when called:    4
  1761 ;; This function calls:
  1762 ;;		Nothing
  1763 ;; This function is called by:
  1764 ;;		_SYSTEM_Initialize
  1765 ;; This function uses a non-reentrant model
  1766 ;;
  1767                           
  1768                           	psect	text18
  1769  001E1E                     __ptext18:
  1770                           	opt stack 0
  1771  001E1E                     _EUSART1_Initialize:
  1772                           	opt stack 25
  1773                           
  1774                           ; BSR set to: 15
  1775                           ;eusart1.c: 80: PIE1bits.RC1IE = 0;
  1776                           
  1777                           ; BSR set to: 15
  1778                           ;incstack = 0
  1779  001E1E  9A9D               	bcf	3997,5,c	;volatile
  1780                           
  1781                           ;eusart1.c: 81: PIE1bits.TX1IE = 0;
  1782  001E20  989D               	bcf	3997,4,c	;volatile
  1783                           
  1784                           ; BSR set to: 15
  1785                           ;eusart1.c: 86: BAUDCON1 = 0x08;
  1786  001E22  0E08               	movlw	8
  1787  001E24  6EB8               	movwf	4024,c	;volatile
  1788                           
  1789                           ;eusart1.c: 89: RCSTA1 = 0x90;
  1790  001E26  0E90               	movlw	144
  1791  001E28  6EAB               	movwf	4011,c	;volatile
  1792                           
  1793                           ;eusart1.c: 92: TXSTA1 = 0x24;
  1794  001E2A  0E24               	movlw	36
  1795  001E2C  6EAC               	movwf	4012,c	;volatile
  1796                           
  1797                           ;eusart1.c: 95: SPBRG1 = 0xA0;
  1798  001E2E  0EA0               	movlw	160
  1799  001E30  6EAF               	movwf	4015,c	;volatile
  1800                           
  1801                           ;eusart1.c: 102: eusart1TxHead = 0;
  1802  001E32  0E01               	movlw	1
  1803  001E34  6EB0               	movwf	4016,c	;volatile
  1804                           
  1805                           ; BSR set to: 15
  1806                           ;eusart1.c: 103: eusart1TxTail = 0;
  1807  001E36  6A2A               	clrf	_eusart1TxTail,c
  1808                           
  1809                           ;eusart1.c: 104: eusart1TxBufferRemaining = sizeof(eusart1TxBuffer);
  1810  001E38  0E08               	movlw	8
  1811  001E3A  6E55               	movwf	_eusart1TxBufferRemaining,c	;volatile
  1812                           
  1813                           ; BSR set to: 15
  1814                           ;eusart1.c: 107: eusart1RxTail = 0;
  1815  001E3C  6A29               	clrf	_eusart1RxHead,c
  1816                           
  1817                           ; BSR set to: 15
  1818                           ;eusart1.c: 108: eusart1RxCount = 0;
  1819  001E3E  6A28               	clrf	_eusart1RxCount,c	;volatile
  1820                           
  1821                           ; BSR set to: 15
  1822                           ;eusart1.c: 111: PIE1bits.RC1IE = 1;
  1823  001E40  8A9D               	bsf	3997,5,c	;volatile
  1824                           
  1825                           ; BSR set to: 15
  1826  001E42  0012               	return		;funcret
  1827  001E44                     __end_of_EUSART1_Initialize:
  1828                           	opt stack 0
  1829                           intcon	equ	0xFF2
  1830                           intcon2	equ	0xFF1
  1831                           postinc0	equ	0xFEE
  1832                           wreg	equ	0xFE8
  1833                           
  1834 ;; *************** function _CCP4_Initialize *****************
  1835 ;; Defined at:
  1836 ;;		line 60 in file "mcc_generated_files/ccp4.c"
  1837 ;; Parameters:    Size  Location     Type
  1838 ;;		None
  1839 ;; Auto vars:     Size  Location     Type
  1840 ;;		None
  1841 ;; Return value:  Size  Location     Type
  1842 ;;                  1    wreg      void 
  1843 ;; Registers used:
  1844 ;;		wreg, status,2
  1845 ;; Tracked objects:
  1846 ;;		On entry : F/F
  1847 ;;		On exit  : F/F
  1848 ;;		Unchanged: 0/0
  1849 ;; Data sizes:     COMRAM   BANK0   BANK1   BANK2   BANK3   BANK4   BANK5   BANK6   BANK7   BANK8   BANK9  BANK10  BANK1
      +1  BANK12  BANK13  BANK14  BANK15
  1850 ;;      Params:         0       0       0       0       0       0       0       0       0       0       0       0       
      +0       0       0       0       0
  1851 ;;      Locals:         0       0       0       0       0       0       0       0       0       0       0       0       
      +0       0       0       0       0
  1852 ;;      Temps:          0       0       0       0       0       0       0       0       0       0       0       0       
      +0       0       0       0       0
  1853 ;;      Totals:         0       0       0       0       0       0       0       0       0       0       0       0       
      +0       0       0       0       0
  1854 ;;Total ram usage:        0 bytes
  1855 ;; Hardware stack levels used:    1
  1856 ;; Hardware stack levels required when called:    4
  1857 ;; This function calls:
  1858 ;;		Nothing
  1859 ;; This function is called by:
  1860 ;;		_SYSTEM_Initialize
  1861 ;; This function uses a non-reentrant model
  1862 ;;
  1863                           
  1864                           	psect	text19
  1865  001FFE                     __ptext19:
  1866                           	opt stack 0
  1867  001FFE                     _CCP4_Initialize:
  1868                           	opt stack 25
  1869                           
  1870                           ; BSR set to: 15
  1871                           ;ccp4.c: 65: CCP4CON = 0x04;
  1872                           
  1873                           ; BSR set to: 15
  1874                           ;incstack = 0
  1875  001FFE  0E04               	movlw	4
  1876  002000  6F57               	movwf	87,b	;volatile
  1877                           
  1878                           ; BSR set to: 15
  1879                           ;ccp4.c: 68: CCPR4L = 0x00;
  1880  002002  6B58               	clrf	88,b	;volatile
  1881                           
  1882                           ; BSR set to: 15
  1883                           ;ccp4.c: 71: CCPR4H = 0x00;
  1884  002004  6B59               	clrf	89,b	;volatile
  1885                           
  1886                           ;ccp4.c: 74: CCPTMRS1bits.C4TSEL = 0x0;
  1887  002006  0EFC               	movlw	-4
  1888  002008  1748               	andwf	72,f,b	;volatile
  1889                           
  1890                           ; BSR set to: 15
  1891                           ;ccp4.c: 77: PIR4bits.CCP4IF = 0;
  1892  00200A  927B               	bcf	3963,1,c	;volatile
  1893                           
  1894                           ; BSR set to: 15
  1895                           ;ccp4.c: 80: PIE4bits.CCP4IE = 1;
  1896  00200C  827A               	bsf	3962,1,c	;volatile
  1897                           
  1898                           ; BSR set to: 15
  1899  00200E  0CFC               	retlw	252	;funcret
  1900  002010                     __end_of_CCP4_Initialize:
  1901                           	opt stack 0
  1902                           intcon	equ	0xFF2
  1903                           intcon2	equ	0xFF1
  1904                           postinc0	equ	0xFEE
  1905                           wreg	equ	0xFE8
  1906                           
  1907 ;; *************** function _LED_play_pattern *****************
  1908 ;; Defined at:
  1909 ;;		line 518 in file "LEDLogic.c"
  1910 ;; Parameters:    Size  Location     Type
  1911 ;;  pattern         1    wreg     enum E7587
  1912 ;; Auto vars:     Size  Location     Type
  1913 ;;  pattern         1    5[BANK0 ] enum E7587
  1914 ;;  i               1    7[BANK0 ] char 
  1915 ;;  i               1    6[BANK0 ] char 
  1916 ;; Return value:  Size  Location     Type
  1917 ;;                  1    wreg      void 
  1918 ;; Registers used:
  1919 ;;		wreg, status,2, status,0, cstack
  1920 ;; Tracked objects:
  1921 ;;		On entry : 0/F
  1922 ;;		On exit  : 0/0
  1923 ;;		Unchanged: 0/0
  1924 ;; Data sizes:     COMRAM   BANK0   BANK1   BANK2   BANK3   BANK4   BANK5   BANK6   BANK7   BANK8   BANK9  BANK10  BANK1
      +1  BANK12  BANK13  BANK14  BANK15
  1925 ;;      Params:         0       0       0       0       0       0       0       0       0       0       0       0       
      +0       0       0       0       0
  1926 ;;      Locals:         0       3       0       0       0       0       0       0       0       0       0       0       
      +0       0       0       0       0
  1927 ;;      Temps:          0       0       0       0       0       0       0       0       0       0       0       0       
      +0       0       0       0       0
  1928 ;;      Totals:         0       3       0       0       0       0       0       0       0       0       0       0       
      +0       0       0       0       0
  1929 ;;Total ram usage:        3 bytes
  1930 ;; Hardware stack levels used:    1
  1931 ;; Hardware stack levels required when called:    8
  1932 ;; This function calls:
  1933 ;;		_clearPattern
  1934 ;;		_playArmed
  1935 ;;		_playDamage
  1936 ;;		_playElementDamage
  1937 ;;		_playHeal
  1938 ;;		_playStun
  1939 ;;		_playStunSelf
  1940 ;;		_playTestFailed
  1941 ;;		_playTestPassed
  1942 ;; This function is called by:
  1943 ;;		_main
  1944 ;; This function uses a non-reentrant model
  1945 ;;
  1946                           
  1947                           	psect	text20
  1948  0019DA                     __ptext20:
  1949                           	opt stack 0
  1950  0019DA                     _LED_play_pattern:
  1951                           	opt stack 22
  1952                           
  1953                           ; BSR set to: 15
  1954                           ;incstack = 0
  1955                           ;LED_play_pattern@pattern stored from wreg
  1956  0019DA  0100               	movlb	0	; () banked
  1957  0019DC  6F7A               	movwf	LED_play_pattern@pattern& (0+255),b
  1958                           
  1959                           ;LEDLogic.c: 521: (INTCONbits.GIE = 0);
  1960  0019DE  9EF2               	bcf	intcon,7,c	;volatile
  1961                           
  1962                           ;LEDLogic.c: 523: switch(pattern) {
  1963  0019E0  D028               	goto	l3532
  1964  0019E2                     l395:
  1965                           
  1966                           ; BSR set to: 0
  1967                           ;LEDLogic.c: 526: for (int8_t i = 0; i < 20; i++) {
  1968  0019E2  6B7B               	clrf	LED_play_pattern@i& (0+255),b
  1969  0019E4                     l3502:
  1970                           
  1971                           ; BSR set to: 0
  1972                           ;LEDLogic.c: 527: playDamage();
  1973  0019E4  EC60  F00E         	call	_playDamage	;wreg free
  1974  0019E8  0100               	movlb	0	; () banked
  1975  0019EA  2B7B               	incf	LED_play_pattern@i& (0+255),f,b
  1976                           
  1977                           ; BSR set to: 0
  1978  0019EC  517B               	movf	LED_play_pattern@i& (0+255),w,b
  1979  0019EE  0A80               	xorlw	128
  1980  0019F0  0F6C               	addlw	-148
  1981  0019F2  E230               	bc	l3534
  1982  0019F4  D7F7               	goto	l3502
  1983  0019F6                     l3508:
  1984                           
  1985                           ; BSR set to: 0
  1986                           ;LEDLogic.c: 531: playArmed();
  1987  0019F6  ECD3  F00D         	call	_playArmed	;wreg free
  1988                           
  1989                           ;LEDLogic.c: 532: break;
  1990  0019FA  D02C               	goto	l3534
  1991  0019FC                     l3510:
  1992                           
  1993                           ; BSR set to: 0
  1994                           ;LEDLogic.c: 534: playElementDamage();
  1995  0019FC  ECA0  F00D         	call	_playElementDamage	;wreg free
  1996                           
  1997                           ;LEDLogic.c: 535: break;
  1998  001A00  D029               	goto	l3534
  1999  001A02                     l3512:
  2000                           
  2001                           ; BSR set to: 0
  2002                           ;LEDLogic.c: 537: playHeal();
  2003  001A02  ECAD  F00F         	call	_playHeal	;wreg free
  2004                           
  2005                           ;LEDLogic.c: 538: break;
  2006  001A06  D026               	goto	l3534
  2007  001A08                     l3514:
  2008                           
  2009                           ; BSR set to: 0
  2010                           ;LEDLogic.c: 540: playStun();
  2011  001A08  EC6D  F00D         	call	_playStun	;wreg free
  2012                           
  2013                           ;LEDLogic.c: 541: break;
  2014  001A0C  D023               	goto	l3534
  2015  001A0E                     l403:
  2016                           
  2017                           ; BSR set to: 0
  2018                           ;LEDLogic.c: 543: for (int8_t i = 0; i < 5; i++) {
  2019  001A0E  6B7C               	clrf	LED_play_pattern@i_446& (0+255),b
  2020  001A10                     l3520:
  2021                           
  2022                           ; BSR set to: 0
  2023                           ;LEDLogic.c: 544: clearPattern();
  2024  001A10  EC90  F00E         	call	_clearPattern	;wreg free
  2025                           
  2026                           ;LEDLogic.c: 545: playStunSelf();
  2027  001A14  ECF0  F008         	call	_playStunSelf	;wreg free
  2028  001A18  0100               	movlb	0	; () banked
  2029  001A1A  2B7C               	incf	LED_play_pattern@i_446& (0+255),f,b
  2030                           
  2031                           ; BSR set to: 0
  2032  001A1C  517C               	movf	LED_play_pattern@i_446& (0+255),w,b
  2033  001A1E  0A80               	xorlw	128
  2034  001A20  0F7B               	addlw	-133
  2035  001A22  E218               	bc	l3534
  2036  001A24  D7F5               	goto	l3520
  2037  001A26                     l3526:
  2038                           
  2039                           ; BSR set to: 0
  2040                           ;LEDLogic.c: 549: playTestPassed();
  2041  001A26  EC2E  F00D         	call	_playTestPassed	;wreg free
  2042                           
  2043                           ;LEDLogic.c: 550: break;
  2044  001A2A  D014               	goto	l3534
  2045  001A2C                     l3528:
  2046                           
  2047                           ; BSR set to: 0
  2048                           ;LEDLogic.c: 552: playTestFailed();
  2049  001A2C  ECBE  F00E         	call	_playTestFailed	;wreg free
  2050                           
  2051                           ;LEDLogic.c: 553: break;
  2052  001A30  D011               	goto	l3534
  2053  001A32                     l3532:
  2054  001A32  0100               	movlb	0	; () banked
  2055  001A34  517A               	movf	LED_play_pattern@pattern& (0+255),w,b
  2056                           
  2057                           ; Switch size 1, requested type "speed"
  2058                           ; Number of cases is 8, Range of values is 0 to 7
  2059                           ; switch strategies available:
  2060                           ; Name         Instructions Cycles
  2061                           ; simple_byte           25    13 (average)
  2062                           ;	Chosen strategy is simple_byte
  2063  001A36  E0DF               	bz	l3508
  2064  001A38  0A01               	xorlw	1	; case 1
  2065  001A3A  E0D3               	bz	l395
  2066  001A3C  0A03               	xorlw	3	; case 2
  2067  001A3E  E0DE               	bz	l3510
  2068  001A40  0A01               	xorlw	1	; case 3
  2069  001A42  E0DF               	bz	l3512
  2070  001A44  0A07               	xorlw	7	; case 4
  2071  001A46  E0E0               	bz	l3514
  2072  001A48  0A01               	xorlw	1	; case 5
  2073  001A4A  E0E1               	bz	l403
  2074  001A4C  0A03               	xorlw	3	; case 6
  2075  001A4E  E0EB               	bz	l3526
  2076  001A50  0A01               	xorlw	1	; case 7
  2077  001A52  E0EC               	bz	l3528
  2078  001A54                     l3534:
  2079                           
  2080                           ;LEDLogic.c: 557: clearPattern();
  2081  001A54  EC90  F00E         	call	_clearPattern	;wreg free
  2082                           
  2083                           ;LEDLogic.c: 560: (INTCONbits.GIE = 1);
  2084  001A58  8EF2               	bsf	intcon,7,c	;volatile
  2085  001A5A  0012               	return		;funcret
  2086  001A5C                     __end_of_LED_play_pattern:
  2087                           	opt stack 0
  2088                           intcon	equ	0xFF2
  2089                           intcon2	equ	0xFF1
  2090                           postinc0	equ	0xFEE
  2091                           wreg	equ	0xFE8
  2092                           
  2093 ;; *************** function _playTestPassed *****************
  2094 ;; Defined at:
  2095 ;;		line 466 in file "LEDLogic.c"
  2096 ;; Parameters:    Size  Location     Type
  2097 ;;		None
  2098 ;; Auto vars:     Size  Location     Type
  2099 ;;  i               2    3[BANK0 ] int 
  2100 ;; Return value:  Size  Location     Type
  2101 ;;                  1    wreg      void 
  2102 ;; Registers used:
  2103 ;;		wreg, status,2, status,0, cstack
  2104 ;; Tracked objects:
  2105 ;;		On entry : 0/0
  2106 ;;		On exit  : 0/0
  2107 ;;		Unchanged: 0/0
  2108 ;; Data sizes:     COMRAM   BANK0   BANK1   BANK2   BANK3   BANK4   BANK5   BANK6   BANK7   BANK8   BANK9  BANK10  BANK1
      +1  BANK12  BANK13  BANK14  BANK15
  2109 ;;      Params:         0       0       0       0       0       0       0       0       0       0       0       0       
      +0       0       0       0       0
  2110 ;;      Locals:         0       2       0       0       0       0       0       0       0       0       0       0       
      +0       0       0       0       0
  2111 ;;      Temps:          0       0       0       0       0       0       0       0       0       0       0       0       
      +0       0       0       0       0
  2112 ;;      Totals:         0       2       0       0       0       0       0       0       0       0       0       0       
      +0       0       0       0       0
  2113 ;;Total ram usage:        2 bytes
  2114 ;; Hardware stack levels used:    1
  2115 ;; Hardware stack levels required when called:    6
  2116 ;; This function calls:
  2117 ;;		_colorBlue
  2118 ;;		_colorGreen
  2119 ;;		_colorRed
  2120 ;;		_colorYellow
  2121 ;;		_delay_25ms_n_times
  2122 ;; This function is called by:
  2123 ;;		_LED_play_pattern
  2124 ;; This function uses a non-reentrant model
  2125 ;;
  2126                           
  2127                           	psect	text21
  2128  001A5C                     __ptext21:
  2129                           	opt stack 0
  2130  001A5C                     _playTestPassed:
  2131                           	opt stack 23
  2132                           
  2133                           ;LEDLogic.c: 467: int i;
  2134                           ;LEDLogic.c: 468: for ( i = 0; i < 6; i++) {
  2135                           
  2136                           ;incstack = 0
  2137  001A5C  0100               	movlb	0	; () banked
  2138  001A5E  6B78               	clrf	playTestPassed@i& (0+255),b
  2139  001A60  6B79               	clrf	(playTestPassed@i+1)& (0+255),b
  2140  001A62                     l3322:
  2141                           
  2142                           ; BSR set to: 0
  2143                           ;LEDLogic.c: 469: colorRed();
  2144  001A62  EC58  F00B         	call	_colorRed	;wreg free
  2145  001A66  0100               	movlb	0	; () banked
  2146  001A68  4B78               	infsnz	playTestPassed@i& (0+255),f,b
  2147  001A6A  2B79               	incf	(playTestPassed@i+1)& (0+255),f,b
  2148                           
  2149                           ; BSR set to: 0
  2150  001A6C  BF79               	btfsc	(playTestPassed@i+1)& (0+255),7,b
  2151  001A6E  D7F9               	goto	l3322
  2152  001A70  5179               	movf	(playTestPassed@i+1)& (0+255),w,b
  2153  001A72  E103               	bnz	u1430
  2154  001A74  0E06               	movlw	6
  2155  001A76  5D78               	subwf	playTestPassed@i& (0+255),w,b
  2156  001A78  E3F4               	bnc	l3322
  2157  001A7A                     u1430:
  2158                           
  2159                           ; BSR set to: 0
  2160                           ;LEDLogic.c: 470: }
  2161                           ;LEDLogic.c: 471: for (i = 0; i < 6; i++) {
  2162  001A7A  6B78               	clrf	playTestPassed@i& (0+255),b
  2163  001A7C  6B79               	clrf	(playTestPassed@i+1)& (0+255),b
  2164  001A7E                     l3332:
  2165                           
  2166                           ; BSR set to: 0
  2167                           ;LEDLogic.c: 472: colorYellow();
  2168  001A7E  EC0D  F00A         	call	_colorYellow	;wreg free
  2169  001A82  0100               	movlb	0	; () banked
  2170  001A84  4B78               	infsnz	playTestPassed@i& (0+255),f,b
  2171  001A86  2B79               	incf	(playTestPassed@i+1)& (0+255),f,b
  2172                           
  2173                           ; BSR set to: 0
  2174  001A88  BF79               	btfsc	(playTestPassed@i+1)& (0+255),7,b
  2175  001A8A  D7F9               	goto	l3332
  2176  001A8C  5179               	movf	(playTestPassed@i+1)& (0+255),w,b
  2177  001A8E  E103               	bnz	u1440
  2178  001A90  0E06               	movlw	6
  2179  001A92  5D78               	subwf	playTestPassed@i& (0+255),w,b
  2180  001A94  E3F4               	bnc	l3332
  2181  001A96                     u1440:
  2182                           
  2183                           ; BSR set to: 0
  2184                           ;LEDLogic.c: 473: }
  2185                           ;LEDLogic.c: 474: for (i = 0; i < 6; i++) {
  2186  001A96  6B78               	clrf	playTestPassed@i& (0+255),b
  2187  001A98  6B79               	clrf	(playTestPassed@i+1)& (0+255),b
  2188  001A9A                     l3342:
  2189                           
  2190                           ; BSR set to: 0
  2191                           ;LEDLogic.c: 475: colorGreen();
  2192  001A9A  ECEF  F00A         	call	_colorGreen	;wreg free
  2193  001A9E  0100               	movlb	0	; () banked
  2194  001AA0  4B78               	infsnz	playTestPassed@i& (0+255),f,b
  2195  001AA2  2B79               	incf	(playTestPassed@i+1)& (0+255),f,b
  2196                           
  2197                           ; BSR set to: 0
  2198  001AA4  BF79               	btfsc	(playTestPassed@i+1)& (0+255),7,b
  2199  001AA6  D7F9               	goto	l3342
  2200  001AA8  5179               	movf	(playTestPassed@i+1)& (0+255),w,b
  2201  001AAA  E103               	bnz	u1450
  2202  001AAC  0E06               	movlw	6
  2203  001AAE  5D78               	subwf	playTestPassed@i& (0+255),w,b
  2204  001AB0  E3F4               	bnc	l3342
  2205  001AB2                     u1450:
  2206                           
  2207                           ; BSR set to: 0
  2208                           ;LEDLogic.c: 476: }
  2209                           ;LEDLogic.c: 477: for (i = 0; i < 6; i++) {
  2210  001AB2  6B78               	clrf	playTestPassed@i& (0+255),b
  2211  001AB4  6B79               	clrf	(playTestPassed@i+1)& (0+255),b
  2212  001AB6                     l3352:
  2213                           
  2214                           ; BSR set to: 0
  2215                           ;LEDLogic.c: 478: colorBlue();
  2216  001AB6  EC29  F00C         	call	_colorBlue	;wreg free
  2217  001ABA  0100               	movlb	0	; () banked
  2218  001ABC  4B78               	infsnz	playTestPassed@i& (0+255),f,b
  2219  001ABE  2B79               	incf	(playTestPassed@i+1)& (0+255),f,b
  2220                           
  2221                           ; BSR set to: 0
  2222  001AC0  BF79               	btfsc	(playTestPassed@i+1)& (0+255),7,b
  2223  001AC2  D7F9               	goto	l3352
  2224  001AC4  5179               	movf	(playTestPassed@i+1)& (0+255),w,b
  2225  001AC6  E103               	bnz	u1460
  2226  001AC8  0E06               	movlw	6
  2227  001ACA  5D78               	subwf	playTestPassed@i& (0+255),w,b
  2228  001ACC  E3F4               	bnc	l3352
  2229  001ACE                     u1460:
  2230                           
  2231                           ; BSR set to: 0
  2232                           ;LEDLogic.c: 479: }
  2233                           ;LEDLogic.c: 480: delay_25ms_n_times(200);
  2234  001ACE  0E00               	movlw	0
  2235  001AD0  6F76               	movwf	(delay_25ms_n_times@n+1)& (0+255),b
  2236  001AD2  0EC8               	movlw	200
  2237  001AD4  6F75               	movwf	delay_25ms_n_times@n& (0+255),b
  2238  001AD6  EF47  F00E         	goto	_delay_25ms_n_times	;wreg free
  2239  001ADA                     __end_of_playTestPassed:
  2240                           	opt stack 0
  2241                           intcon	equ	0xFF2
  2242                           intcon2	equ	0xFF1
  2243                           postinc0	equ	0xFEE
  2244                           wreg	equ	0xFE8
  2245                           
  2246 ;; *************** function _playTestFailed *****************
  2247 ;; Defined at:
  2248 ;;		line 484 in file "LEDLogic.c"
  2249 ;; Parameters:    Size  Location     Type
  2250 ;;		None
  2251 ;; Auto vars:     Size  Location     Type
  2252 ;;  i               2    3[BANK0 ] int 
  2253 ;; Return value:  Size  Location     Type
  2254 ;;                  1    wreg      void 
  2255 ;; Registers used:
  2256 ;;		wreg, status,2, status,0, cstack
  2257 ;; Tracked objects:
  2258 ;;		On entry : 0/0
  2259 ;;		On exit  : 0/0
  2260 ;;		Unchanged: 0/0
  2261 ;; Data sizes:     COMRAM   BANK0   BANK1   BANK2   BANK3   BANK4   BANK5   BANK6   BANK7   BANK8   BANK9  BANK10  BANK1
      +1  BANK12  BANK13  BANK14  BANK15
  2262 ;;      Params:         0       0       0       0       0       0       0       0       0       0       0       0       
      +0       0       0       0       0
  2263 ;;      Locals:         0       2       0       0       0       0       0       0       0       0       0       0       
      +0       0       0       0       0
  2264 ;;      Temps:          0       0       0       0       0       0       0       0       0       0       0       0       
      +0       0       0       0       0
  2265 ;;      Totals:         0       2       0       0       0       0       0       0       0       0       0       0       
      +0       0       0       0       0
  2266 ;;Total ram usage:        2 bytes
  2267 ;; Hardware stack levels used:    1
  2268 ;; Hardware stack levels required when called:    6
  2269 ;; This function calls:
  2270 ;;		_colorPink
  2271 ;;		_delay_25ms_n_times
  2272 ;; This function is called by:
  2273 ;;		_LED_play_pattern
  2274 ;; This function uses a non-reentrant model
  2275 ;;
  2276                           
  2277                           	psect	text22
  2278  001D7C                     __ptext22:
  2279                           	opt stack 0
  2280  001D7C                     _playTestFailed:
  2281                           	opt stack 23
  2282                           
  2283                           ;LEDLogic.c: 485: int i;
  2284                           ;LEDLogic.c: 486: for (i = 0; i < 24; i++) {
  2285                           
  2286                           ;incstack = 0
  2287  001D7C  0100               	movlb	0	; () banked
  2288  001D7E  6B78               	clrf	playTestFailed@i& (0+255),b
  2289  001D80  6B79               	clrf	(playTestFailed@i+1)& (0+255),b
  2290  001D82                     l3366:
  2291                           
  2292                           ; BSR set to: 0
  2293                           ;LEDLogic.c: 487: colorPink();
  2294  001D82  EC9C  F009         	call	_colorPink	;wreg free
  2295  001D86  0100               	movlb	0	; () banked
  2296  001D88  4B78               	infsnz	playTestFailed@i& (0+255),f,b
  2297  001D8A  2B79               	incf	(playTestFailed@i+1)& (0+255),f,b
  2298                           
  2299                           ; BSR set to: 0
  2300  001D8C  BF79               	btfsc	(playTestFailed@i+1)& (0+255),7,b
  2301  001D8E  D7F9               	goto	l3366
  2302  001D90  5179               	movf	(playTestFailed@i+1)& (0+255),w,b
  2303  001D92  E103               	bnz	u1470
  2304  001D94  0E18               	movlw	24
  2305  001D96  5D78               	subwf	playTestFailed@i& (0+255),w,b
  2306  001D98  E3F4               	bnc	l3366
  2307  001D9A                     u1470:
  2308                           
  2309                           ; BSR set to: 0
  2310                           ;LEDLogic.c: 488: }
  2311                           ;LEDLogic.c: 489: delay_25ms_n_times(200);
  2312  001D9A  0E00               	movlw	0
  2313  001D9C  6F76               	movwf	(delay_25ms_n_times@n+1)& (0+255),b
  2314  001D9E  0EC8               	movlw	200
  2315  001DA0  6F75               	movwf	delay_25ms_n_times@n& (0+255),b
  2316  001DA2  EF47  F00E         	goto	_delay_25ms_n_times	;wreg free
  2317  001DA6                     __end_of_playTestFailed:
  2318                           	opt stack 0
  2319                           intcon	equ	0xFF2
  2320                           intcon2	equ	0xFF1
  2321                           postinc0	equ	0xFEE
  2322                           wreg	equ	0xFE8
  2323                           
  2324 ;; *************** function _colorPink *****************
  2325 ;; Defined at:
  2326 ;;		line 272 in file "LEDLogic.c"
  2327 ;; Parameters:    Size  Location     Type
  2328 ;;		None
  2329 ;; Auto vars:     Size  Location     Type
  2330 ;;		None
  2331 ;; Return value:  Size  Location     Type
  2332 ;;                  1    wreg      void 
  2333 ;; Registers used:
  2334 ;;		cstack
  2335 ;; Tracked objects:
  2336 ;;		On entry : F/0
  2337 ;;		On exit  : 0/0
  2338 ;;		Unchanged: 0/0
  2339 ;; Data sizes:     COMRAM   BANK0   BANK1   BANK2   BANK3   BANK4   BANK5   BANK6   BANK7   BANK8   BANK9  BANK10  BANK1
      +1  BANK12  BANK13  BANK14  BANK15
  2340 ;;      Params:         0       0       0       0       0       0       0       0       0       0       0       0       
      +0       0       0       0       0
  2341 ;;      Locals:         0       0       0       0       0       0       0       0       0       0       0       0       
      +0       0       0       0       0
  2342 ;;      Temps:          0       0       0       0       0       0       0       0       0       0       0       0       
      +0       0       0       0       0
  2343 ;;      Totals:         0       0       0       0       0       0       0       0       0       0       0       0       
      +0       0       0       0       0
  2344 ;;Total ram usage:        0 bytes
  2345 ;; Hardware stack levels used:    1
  2346 ;; Hardware stack levels required when called:    5
  2347 ;; This function calls:
  2348 ;;		_LEDOne
  2349 ;;		_LEDZero
  2350 ;; This function is called by:
  2351 ;;		_playTestFailed
  2352 ;; This function uses a non-reentrant model
  2353 ;;
  2354                           
  2355                           	psect	text23
  2356  001338                     __ptext23:
  2357                           	opt stack 0
  2358  001338                     _colorPink:
  2359                           	opt stack 0
  2360  001338                     i1L__ptext39:
  2361                           	opt stack 0
  2362  001338                     i1L_LEDZero:
  2363                           	opt stack 0
  2364  001338                     i1Ll3090:
  2365                           	opt stack 23
  2366                           
  2367                           ;LEDLogic.c: 20: LATBbits.LATB4 = 1;
  2368  001338  888A               	bsf	3978,4,c	;volatile
  2369                           
  2370                           ;LEDLogic.c: 21: __nop();
  2371  00133A  F000               	nop	
  2372                           
  2373                           ;LEDLogic.c: 22: LATBbits.LATB4 = 0;
  2374  00133C  988A               	bcf	3978,4,c	;volatile
  2375                           
  2376                           ;LEDLogic.c: 23: __nop();
  2377  00133E  F000               	nop	
  2378  001340                     i1Ll277:
  2379                           	opt stack 0
  2380  001340                     i2L__ptext39:
  2381                           	opt stack 0
  2382  001340                     i2L_LEDZero:
  2383                           	opt stack 0
  2384  001340                     i2Ll3090:
  2385                           	opt stack 23
  2386                           
  2387                           ;LEDLogic.c: 20: LATBbits.LATB4 = 1;
  2388  001340  888A               	bsf	3978,4,c	;volatile
  2389                           
  2390                           ;LEDLogic.c: 21: __nop();
  2391  001342  F000               	nop	
  2392                           
  2393                           ;LEDLogic.c: 22: LATBbits.LATB4 = 0;
  2394  001344  988A               	bcf	3978,4,c	;volatile
  2395                           
  2396                           ;LEDLogic.c: 23: __nop();
  2397  001346  F000               	nop	
  2398  001348                     i2Ll277:
  2399                           	opt stack 0
  2400  001348                     i3L__ptext39:
  2401                           	opt stack 0
  2402  001348                     i3L_LEDZero:
  2403                           	opt stack 0
  2404  001348                     i3Ll3090:
  2405                           	opt stack 23
  2406                           
  2407                           ;LEDLogic.c: 20: LATBbits.LATB4 = 1;
  2408  001348  888A               	bsf	3978,4,c	;volatile
  2409                           
  2410                           ;LEDLogic.c: 21: __nop();
  2411  00134A  F000               	nop	
  2412                           
  2413                           ;LEDLogic.c: 22: LATBbits.LATB4 = 0;
  2414  00134C  988A               	bcf	3978,4,c	;volatile
  2415                           
  2416                           ;LEDLogic.c: 23: __nop();
  2417  00134E  F000               	nop	
  2418  001350                     i3Ll277:
  2419                           	opt stack 0
  2420  001350                     i4L__ptext39:
  2421                           	opt stack 0
  2422  001350                     i4L_LEDZero:
  2423                           	opt stack 0
  2424  001350                     i4Ll3090:
  2425                           	opt stack 23
  2426                           
  2427                           ;LEDLogic.c: 20: LATBbits.LATB4 = 1;
  2428  001350  888A               	bsf	3978,4,c	;volatile
  2429                           
  2430                           ;LEDLogic.c: 21: __nop();
  2431  001352  F000               	nop	
  2432                           
  2433                           ;LEDLogic.c: 22: LATBbits.LATB4 = 0;
  2434  001354  988A               	bcf	3978,4,c	;volatile
  2435                           
  2436                           ;LEDLogic.c: 23: __nop();
  2437  001356  F000               	nop	
  2438  001358                     i4Ll277:
  2439                           	opt stack 0
  2440  001358                     i5L__ptext39:
  2441                           	opt stack 0
  2442  001358                     i5L_LEDZero:
  2443                           	opt stack 0
  2444  001358                     i5Ll3090:
  2445                           	opt stack 23
  2446                           
  2447                           ;LEDLogic.c: 20: LATBbits.LATB4 = 1;
  2448  001358  888A               	bsf	3978,4,c	;volatile
  2449                           
  2450                           ;LEDLogic.c: 21: __nop();
  2451  00135A  F000               	nop	
  2452                           
  2453                           ;LEDLogic.c: 22: LATBbits.LATB4 = 0;
  2454  00135C  988A               	bcf	3978,4,c	;volatile
  2455                           
  2456                           ;LEDLogic.c: 23: __nop();
  2457  00135E  F000               	nop	
  2458  001360                     i5Ll277:
  2459                           	opt stack 0
  2460  001360                     i6L__ptext39:
  2461                           	opt stack 0
  2462  001360                     i6L_LEDZero:
  2463                           	opt stack 0
  2464  001360                     i6Ll3090:
  2465                           	opt stack 23
  2466                           
  2467                           ;LEDLogic.c: 20: LATBbits.LATB4 = 1;
  2468  001360  888A               	bsf	3978,4,c	;volatile
  2469                           
  2470                           ;LEDLogic.c: 21: __nop();
  2471  001362  F000               	nop	
  2472                           
  2473                           ;LEDLogic.c: 22: LATBbits.LATB4 = 0;
  2474  001364  988A               	bcf	3978,4,c	;volatile
  2475                           
  2476                           ;LEDLogic.c: 23: __nop();
  2477  001366  F000               	nop	
  2478  001368                     i6Ll277:
  2479                           	opt stack 0
  2480  001368                     i7L__ptext39:
  2481                           	opt stack 0
  2482  001368                     i7L_LEDZero:
  2483                           	opt stack 0
  2484  001368                     i7Ll3090:
  2485                           	opt stack 23
  2486                           
  2487                           ;LEDLogic.c: 20: LATBbits.LATB4 = 1;
  2488  001368  888A               	bsf	3978,4,c	;volatile
  2489                           
  2490                           ;LEDLogic.c: 21: __nop();
  2491  00136A  F000               	nop	
  2492                           
  2493                           ;LEDLogic.c: 22: LATBbits.LATB4 = 0;
  2494  00136C  988A               	bcf	3978,4,c	;volatile
  2495                           
  2496                           ;LEDLogic.c: 23: __nop();
  2497  00136E  F000               	nop	
  2498  001370                     i7Ll277:
  2499                           	opt stack 0
  2500  001370                     i8L__ptext39:
  2501                           	opt stack 0
  2502  001370                     i8L_LEDZero:
  2503                           	opt stack 0
  2504  001370                     i8Ll3090:
  2505                           	opt stack 23
  2506                           
  2507                           ;LEDLogic.c: 20: LATBbits.LATB4 = 1;
  2508  001370  888A               	bsf	3978,4,c	;volatile
  2509                           
  2510                           ;LEDLogic.c: 21: __nop();
  2511  001372  F000               	nop	
  2512                           
  2513                           ;LEDLogic.c: 22: LATBbits.LATB4 = 0;
  2514  001374  988A               	bcf	3978,4,c	;volatile
  2515                           
  2516                           ;LEDLogic.c: 23: __nop();
  2517  001376  F000               	nop	
  2518  001378                     i8Ll277:
  2519                           	opt stack 0
  2520  001378                     i9L__ptext40:
  2521                           	opt stack 0
  2522  001378                     i9L_LEDOne:
  2523                           	opt stack 0
  2524  001378                     i9Ll3092:
  2525                           	opt stack 23
  2526                           
  2527                           ;LEDLogic.c: 10: LATBbits.LATB4 = 1;
  2528  001378  888A               	bsf	3978,4,c	;volatile
  2529                           
  2530                           ;LEDLogic.c: 11: __nop();
  2531  00137A  F000               	nop	
  2532                           
  2533                           ;LEDLogic.c: 12: __nop();
  2534  00137C  F000               	nop	
  2535                           
  2536                           ;LEDLogic.c: 13: LATBbits.LATB4 = 0;
  2537  00137E  988A               	bcf	3978,4,c	;volatile
  2538                           
  2539                           ;LEDLogic.c: 14: __nop();
  2540  001380  F000               	nop	
  2541  001382                     i9Ll274:
  2542                           	opt stack 0
  2543  001382                     i10L__ptext40:
  2544                           	opt stack 0
  2545  001382                     i10L_LEDOne:
  2546                           	opt stack 0
  2547  001382                     i10Ll3092:
  2548                           	opt stack 23
  2549                           
  2550                           ;LEDLogic.c: 10: LATBbits.LATB4 = 1;
  2551  001382  888A               	bsf	3978,4,c	;volatile
  2552                           
  2553                           ;LEDLogic.c: 11: __nop();
  2554  001384  F000               	nop	
  2555                           
  2556                           ;LEDLogic.c: 12: __nop();
  2557  001386  F000               	nop	
  2558                           
  2559                           ;LEDLogic.c: 13: LATBbits.LATB4 = 0;
  2560  001388  988A               	bcf	3978,4,c	;volatile
  2561                           
  2562                           ;LEDLogic.c: 14: __nop();
  2563  00138A  F000               	nop	
  2564  00138C                     i10Ll274:
  2565                           	opt stack 0
  2566  00138C                     i11L__ptext40:
  2567                           	opt stack 0
  2568  00138C                     i11L_LEDOne:
  2569                           	opt stack 0
  2570  00138C                     i11Ll3092:
  2571                           	opt stack 23
  2572                           
  2573                           ;LEDLogic.c: 10: LATBbits.LATB4 = 1;
  2574  00138C  888A               	bsf	3978,4,c	;volatile
  2575                           
  2576                           ;LEDLogic.c: 11: __nop();
  2577  00138E  F000               	nop	
  2578                           
  2579                           ;LEDLogic.c: 12: __nop();
  2580  001390  F000               	nop	
  2581                           
  2582                           ;LEDLogic.c: 13: LATBbits.LATB4 = 0;
  2583  001392  988A               	bcf	3978,4,c	;volatile
  2584                           
  2585                           ;LEDLogic.c: 14: __nop();
  2586  001394  F000               	nop	
  2587  001396                     i11Ll274:
  2588                           	opt stack 0
  2589  001396                     i12L__ptext40:
  2590                           	opt stack 0
  2591  001396                     i12L_LEDOne:
  2592                           	opt stack 0
  2593  001396                     i12Ll3092:
  2594                           	opt stack 23
  2595                           
  2596                           ;LEDLogic.c: 10: LATBbits.LATB4 = 1;
  2597  001396  888A               	bsf	3978,4,c	;volatile
  2598                           
  2599                           ;LEDLogic.c: 11: __nop();
  2600  001398  F000               	nop	
  2601                           
  2602                           ;LEDLogic.c: 12: __nop();
  2603  00139A  F000               	nop	
  2604                           
  2605                           ;LEDLogic.c: 13: LATBbits.LATB4 = 0;
  2606  00139C  988A               	bcf	3978,4,c	;volatile
  2607                           
  2608                           ;LEDLogic.c: 14: __nop();
  2609  00139E  F000               	nop	
  2610  0013A0                     i12Ll274:
  2611                           	opt stack 0
  2612  0013A0                     i13L__ptext40:
  2613                           	opt stack 0
  2614  0013A0                     i13L_LEDOne:
  2615                           	opt stack 0
  2616  0013A0                     i13Ll3092:
  2617                           	opt stack 23
  2618                           
  2619                           ;LEDLogic.c: 10: LATBbits.LATB4 = 1;
  2620  0013A0  888A               	bsf	3978,4,c	;volatile
  2621                           
  2622                           ;LEDLogic.c: 11: __nop();
  2623  0013A2  F000               	nop	
  2624                           
  2625                           ;LEDLogic.c: 12: __nop();
  2626  0013A4  F000               	nop	
  2627                           
  2628                           ;LEDLogic.c: 13: LATBbits.LATB4 = 0;
  2629  0013A6  988A               	bcf	3978,4,c	;volatile
  2630                           
  2631                           ;LEDLogic.c: 14: __nop();
  2632  0013A8  F000               	nop	
  2633  0013AA                     i13Ll274:
  2634                           	opt stack 0
  2635  0013AA                     i14L__ptext40:
  2636                           	opt stack 0
  2637  0013AA                     i14L_LEDOne:
  2638                           	opt stack 0
  2639  0013AA                     i14Ll3092:
  2640                           	opt stack 23
  2641                           
  2642                           ;LEDLogic.c: 10: LATBbits.LATB4 = 1;
  2643  0013AA  888A               	bsf	3978,4,c	;volatile
  2644                           
  2645                           ;LEDLogic.c: 11: __nop();
  2646  0013AC  F000               	nop	
  2647                           
  2648                           ;LEDLogic.c: 12: __nop();
  2649  0013AE  F000               	nop	
  2650                           
  2651                           ;LEDLogic.c: 13: LATBbits.LATB4 = 0;
  2652  0013B0  988A               	bcf	3978,4,c	;volatile
  2653                           
  2654                           ;LEDLogic.c: 14: __nop();
  2655  0013B2  F000               	nop	
  2656  0013B4                     i14Ll274:
  2657                           	opt stack 0
  2658  0013B4                     i15L__ptext40:
  2659                           	opt stack 0
  2660  0013B4                     i15L_LEDOne:
  2661                           	opt stack 0
  2662  0013B4                     i15Ll3092:
  2663                           	opt stack 23
  2664                           
  2665                           ;LEDLogic.c: 10: LATBbits.LATB4 = 1;
  2666  0013B4  888A               	bsf	3978,4,c	;volatile
  2667                           
  2668                           ;LEDLogic.c: 11: __nop();
  2669  0013B6  F000               	nop	
  2670                           
  2671                           ;LEDLogic.c: 12: __nop();
  2672  0013B8  F000               	nop	
  2673                           
  2674                           ;LEDLogic.c: 13: LATBbits.LATB4 = 0;
  2675  0013BA  988A               	bcf	3978,4,c	;volatile
  2676                           
  2677                           ;LEDLogic.c: 14: __nop();
  2678  0013BC  F000               	nop	
  2679  0013BE                     i15Ll274:
  2680                           	opt stack 0
  2681  0013BE                     i16L__ptext40:
  2682                           	opt stack 0
  2683  0013BE                     i16L_LEDOne:
  2684                           	opt stack 0
  2685  0013BE                     i16Ll3092:
  2686                           	opt stack 23
  2687                           
  2688                           ;LEDLogic.c: 10: LATBbits.LATB4 = 1;
  2689  0013BE  888A               	bsf	3978,4,c	;volatile
  2690                           
  2691                           ;LEDLogic.c: 11: __nop();
  2692  0013C0  F000               	nop	
  2693                           
  2694                           ;LEDLogic.c: 12: __nop();
  2695  0013C2  F000               	nop	
  2696                           
  2697                           ;LEDLogic.c: 13: LATBbits.LATB4 = 0;
  2698  0013C4  988A               	bcf	3978,4,c	;volatile
  2699                           
  2700                           ;LEDLogic.c: 14: __nop();
  2701  0013C6  F000               	nop	
  2702  0013C8                     i16Ll274:
  2703                           	opt stack 0
  2704  0013C8                     i17L__ptext40:
  2705                           	opt stack 0
  2706  0013C8                     i17L_LEDOne:
  2707                           	opt stack 0
  2708  0013C8                     i17Ll3092:
  2709                           	opt stack 23
  2710                           
  2711                           ;LEDLogic.c: 10: LATBbits.LATB4 = 1;
  2712  0013C8  888A               	bsf	3978,4,c	;volatile
  2713                           
  2714                           ;LEDLogic.c: 11: __nop();
  2715  0013CA  F000               	nop	
  2716                           
  2717                           ;LEDLogic.c: 12: __nop();
  2718  0013CC  F000               	nop	
  2719                           
  2720                           ;LEDLogic.c: 13: LATBbits.LATB4 = 0;
  2721  0013CE  988A               	bcf	3978,4,c	;volatile
  2722                           
  2723                           ;LEDLogic.c: 14: __nop();
  2724  0013D0  F000               	nop	
  2725  0013D2                     i17Ll274:
  2726                           	opt stack 0
  2727  0013D2                     i18L__ptext40:
  2728                           	opt stack 0
  2729  0013D2                     i18L_LEDOne:
  2730                           	opt stack 0
  2731  0013D2                     i18Ll3092:
  2732                           	opt stack 23
  2733                           
  2734                           ;LEDLogic.c: 10: LATBbits.LATB4 = 1;
  2735  0013D2  888A               	bsf	3978,4,c	;volatile
  2736                           
  2737                           ;LEDLogic.c: 11: __nop();
  2738  0013D4  F000               	nop	
  2739                           
  2740                           ;LEDLogic.c: 12: __nop();
  2741  0013D6  F000               	nop	
  2742                           
  2743                           ;LEDLogic.c: 13: LATBbits.LATB4 = 0;
  2744  0013D8  988A               	bcf	3978,4,c	;volatile
  2745                           
  2746                           ;LEDLogic.c: 14: __nop();
  2747  0013DA  F000               	nop	
  2748  0013DC                     i18Ll274:
  2749                           	opt stack 0
  2750  0013DC                     i19L__ptext40:
  2751                           	opt stack 0
  2752  0013DC                     i19L_LEDOne:
  2753                           	opt stack 0
  2754  0013DC                     i19Ll3092:
  2755                           	opt stack 23
  2756                           
  2757                           ;LEDLogic.c: 10: LATBbits.LATB4 = 1;
  2758  0013DC  888A               	bsf	3978,4,c	;volatile
  2759                           
  2760                           ;LEDLogic.c: 11: __nop();
  2761  0013DE  F000               	nop	
  2762                           
  2763                           ;LEDLogic.c: 12: __nop();
  2764  0013E0  F000               	nop	
  2765                           
  2766                           ;LEDLogic.c: 13: LATBbits.LATB4 = 0;
  2767  0013E2  988A               	bcf	3978,4,c	;volatile
  2768                           
  2769                           ;LEDLogic.c: 14: __nop();
  2770  0013E4  F000               	nop	
  2771  0013E6                     i19Ll274:
  2772                           	opt stack 0
  2773  0013E6                     i20L__ptext40:
  2774                           	opt stack 0
  2775  0013E6                     i20L_LEDOne:
  2776                           	opt stack 0
  2777  0013E6                     i20Ll3092:
  2778                           	opt stack 23
  2779                           
  2780                           ;LEDLogic.c: 10: LATBbits.LATB4 = 1;
  2781  0013E6  888A               	bsf	3978,4,c	;volatile
  2782                           
  2783                           ;LEDLogic.c: 11: __nop();
  2784  0013E8  F000               	nop	
  2785                           
  2786                           ;LEDLogic.c: 12: __nop();
  2787  0013EA  F000               	nop	
  2788                           
  2789                           ;LEDLogic.c: 13: LATBbits.LATB4 = 0;
  2790  0013EC  988A               	bcf	3978,4,c	;volatile
  2791                           
  2792                           ;LEDLogic.c: 14: __nop();
  2793  0013EE  F000               	nop	
  2794  0013F0                     i20Ll274:
  2795                           	opt stack 0
  2796  0013F0                     i21L__ptext40:
  2797                           	opt stack 0
  2798  0013F0                     i21L_LEDOne:
  2799                           	opt stack 0
  2800  0013F0                     i21Ll3092:
  2801                           	opt stack 23
  2802                           
  2803                           ;LEDLogic.c: 10: LATBbits.LATB4 = 1;
  2804  0013F0  888A               	bsf	3978,4,c	;volatile
  2805                           
  2806                           ;LEDLogic.c: 11: __nop();
  2807  0013F2  F000               	nop	
  2808                           
  2809                           ;LEDLogic.c: 12: __nop();
  2810  0013F4  F000               	nop	
  2811                           
  2812                           ;LEDLogic.c: 13: LATBbits.LATB4 = 0;
  2813  0013F6  988A               	bcf	3978,4,c	;volatile
  2814                           
  2815                           ;LEDLogic.c: 14: __nop();
  2816  0013F8  F000               	nop	
  2817  0013FA                     i21Ll274:
  2818                           	opt stack 0
  2819  0013FA                     i22L__ptext40:
  2820                           	opt stack 0
  2821  0013FA                     i22L_LEDOne:
  2822                           	opt stack 0
  2823  0013FA                     i22Ll3092:
  2824                           	opt stack 23
  2825                           
  2826                           ;LEDLogic.c: 10: LATBbits.LATB4 = 1;
  2827  0013FA  888A               	bsf	3978,4,c	;volatile
  2828                           
  2829                           ;LEDLogic.c: 11: __nop();
  2830  0013FC  F000               	nop	
  2831                           
  2832                           ;LEDLogic.c: 12: __nop();
  2833  0013FE  F000               	nop	
  2834                           
  2835                           ;LEDLogic.c: 13: LATBbits.LATB4 = 0;
  2836  001400  988A               	bcf	3978,4,c	;volatile
  2837                           
  2838                           ;LEDLogic.c: 14: __nop();
  2839  001402  F000               	nop	
  2840  001404                     i22Ll274:
  2841                           	opt stack 0
  2842  001404                     i23L__ptext40:
  2843                           	opt stack 0
  2844  001404                     i23L_LEDOne:
  2845                           	opt stack 0
  2846  001404                     i23Ll3092:
  2847                           	opt stack 23
  2848                           
  2849                           ;LEDLogic.c: 10: LATBbits.LATB4 = 1;
  2850  001404  888A               	bsf	3978,4,c	;volatile
  2851                           
  2852                           ;LEDLogic.c: 11: __nop();
  2853  001406  F000               	nop	
  2854                           
  2855                           ;LEDLogic.c: 12: __nop();
  2856  001408  F000               	nop	
  2857                           
  2858                           ;LEDLogic.c: 13: LATBbits.LATB4 = 0;
  2859  00140A  988A               	bcf	3978,4,c	;volatile
  2860                           
  2861                           ;LEDLogic.c: 14: __nop();
  2862  00140C  F000               	nop	
  2863  00140E                     i23Ll274:
  2864                           	opt stack 0
  2865  00140E                     i24L__ptext40:
  2866                           	opt stack 0
  2867  00140E                     i24L_LEDOne:
  2868                           	opt stack 0
  2869  00140E                     i24Ll3092:
  2870                           	opt stack 23
  2871                           
  2872                           ;LEDLogic.c: 10: LATBbits.LATB4 = 1;
  2873  00140E  888A               	bsf	3978,4,c	;volatile
  2874                           
  2875                           ;LEDLogic.c: 11: __nop();
  2876  001410  F000               	nop	
  2877                           
  2878                           ;LEDLogic.c: 12: __nop();
  2879  001412  F000               	nop	
  2880                           
  2881                           ;LEDLogic.c: 13: LATBbits.LATB4 = 0;
  2882  001414  988A               	bcf	3978,4,c	;volatile
  2883                           
  2884                           ;LEDLogic.c: 14: __nop();
  2885  001416  F000               	nop	
  2886  001418                     i24Ll274:
  2887                           	opt stack 0
  2888  001418  0012               	return	
  2889  00141A                     __end_of_colorPink:
  2890                           	opt stack 0
  2891                           intcon	equ	0xFF2
  2892                           intcon2	equ	0xFF1
  2893                           postinc0	equ	0xFEE
  2894                           wreg	equ	0xFE8
  2895                           
  2896 ;; *************** function _playStunSelf *****************
  2897 ;; Defined at:
  2898 ;;		line 436 in file "LEDLogic.c"
  2899 ;; Parameters:    Size  Location     Type
  2900 ;;		None
  2901 ;; Auto vars:     Size  Location     Type
  2902 ;;  i               1    4[BANK0 ] char 
  2903 ;; Return value:  Size  Location     Type
  2904 ;;                  1    wreg      void 
  2905 ;; Registers used:
  2906 ;;		wreg, status,2, status,0, cstack
  2907 ;; Tracked objects:
  2908 ;;		On entry : 0/0
  2909 ;;		On exit  : 0/0
  2910 ;;		Unchanged: 0/0
  2911 ;; Data sizes:     COMRAM   BANK0   BANK1   BANK2   BANK3   BANK4   BANK5   BANK6   BANK7   BANK8   BANK9  BANK10  BANK1
      +1  BANK12  BANK13  BANK14  BANK15
  2912 ;;      Params:         0       0       0       0       0       0       0       0       0       0       0       0       
      +0       0       0       0       0
  2913 ;;      Locals:         0       1       0       0       0       0       0       0       0       0       0       0       
      +0       0       0       0       0
  2914 ;;      Temps:          0       1       0       0       0       0       0       0       0       0       0       0       
      +0       0       0       0       0
  2915 ;;      Totals:         0       2       0       0       0       0       0       0       0       0       0       0       
      +0       0       0       0       0
  2916 ;;Total ram usage:        2 bytes
  2917 ;; Hardware stack levels used:    1
  2918 ;; Hardware stack levels required when called:    7
  2919 ;; This function calls:
  2920 ;;		_clearPattern
  2921 ;;		_colorYellow
  2922 ;; This function is called by:
  2923 ;;		_LED_play_pattern
  2924 ;; This function uses a non-reentrant model
  2925 ;;
  2926                           
  2927                           	psect	text24
  2928  0011E0                     __ptext24:
  2929                           	opt stack 0
  2930  0011E0                     _playStunSelf:
  2931                           	opt stack 22
  2932                           
  2933                           ;LEDLogic.c: 438: int8_t i;
  2934                           ;LEDLogic.c: 439: for (i = 0; i < 24; i++) {
  2935                           
  2936                           ;incstack = 0
  2937  0011E0  0100               	movlb	0	; () banked
  2938  0011E2  6B79               	clrf	playStunSelf@i& (0+255),b
  2939  0011E4                     l3286:
  2940                           
  2941                           ; BSR set to: 0
  2942                           ;LEDLogic.c: 440: colorYellow();
  2943  0011E4  EC0D  F00A         	call	_colorYellow	;wreg free
  2944  0011E8  0100               	movlb	0	; () banked
  2945  0011EA  2B79               	incf	playStunSelf@i& (0+255),f,b
  2946                           
  2947                           ; BSR set to: 0
  2948  0011EC  5179               	movf	playStunSelf@i& (0+255),w,b
  2949  0011EE  0A80               	xorlw	128
  2950  0011F0  0F68               	addlw	-152
  2951  0011F2  E3F8               	bnc	l3286
  2952                           
  2953                           ; BSR set to: 0
  2954                           ;LEDLogic.c: 441: }
  2955                           ;LEDLogic.c: 443: _delay((unsigned long)((25)*(16000000/4000.0)));
  2956  0011F4  0E82               	movlw	130
  2957  0011F6  6F78               	movwf	??_playStunSelf& (0+255),b
  2958  0011F8  0EDE               	movlw	222
  2959  0011FA                     u1507:
  2960  0011FA  2EE8               	decfsz	wreg,f,c
  2961  0011FC  D7FE               	goto	u1507
  2962  0011FE  2F78               	decfsz	??_playStunSelf& (0+255),f,b
  2963  001200  D7FC               	goto	u1507
  2964                           
  2965                           ;LEDLogic.c: 444: _delay((unsigned long)((25)*(16000000/4000.0)));
  2966  001202  0E82               	movlw	130
  2967  001204  0100               	movlb	0	; () banked
  2968  001206  6F78               	movwf	??_playStunSelf& (0+255),b
  2969  001208  0EDE               	movlw	222
  2970  00120A                     u1517:
  2971  00120A  2EE8               	decfsz	wreg,f,c
  2972  00120C  D7FE               	goto	u1517
  2973  00120E  2F78               	decfsz	??_playStunSelf& (0+255),f,b
  2974  001210  D7FC               	goto	u1517
  2975                           
  2976                           ;LEDLogic.c: 445: _delay((unsigned long)((25)*(16000000/4000.0)));
  2977  001212  0E82               	movlw	130
  2978  001214  0100               	movlb	0	; () banked
  2979  001216  6F78               	movwf	??_playStunSelf& (0+255),b
  2980  001218  0EDE               	movlw	222
  2981  00121A                     u1527:
  2982  00121A  2EE8               	decfsz	wreg,f,c
  2983  00121C  D7FE               	goto	u1527
  2984  00121E  2F78               	decfsz	??_playStunSelf& (0+255),f,b
  2985  001220  D7FC               	goto	u1527
  2986                           
  2987                           ;LEDLogic.c: 446: _delay((unsigned long)((25)*(16000000/4000.0)));
  2988  001222  0E82               	movlw	130
  2989  001224  0100               	movlb	0	; () banked
  2990  001226  6F78               	movwf	??_playStunSelf& (0+255),b
  2991  001228  0EDE               	movlw	222
  2992  00122A                     u1537:
  2993  00122A  2EE8               	decfsz	wreg,f,c
  2994  00122C  D7FE               	goto	u1537
  2995  00122E  2F78               	decfsz	??_playStunSelf& (0+255),f,b
  2996  001230  D7FC               	goto	u1537
  2997                           
  2998                           ;LEDLogic.c: 447: _delay((unsigned long)((25)*(16000000/4000.0)));
  2999  001232  0E82               	movlw	130
  3000  001234  0100               	movlb	0	; () banked
  3001  001236  6F78               	movwf	??_playStunSelf& (0+255),b
  3002  001238  0EDE               	movlw	222
  3003  00123A                     u1547:
  3004  00123A  2EE8               	decfsz	wreg,f,c
  3005  00123C  D7FE               	goto	u1547
  3006  00123E  2F78               	decfsz	??_playStunSelf& (0+255),f,b
  3007  001240  D7FC               	goto	u1547
  3008                           
  3009                           ;LEDLogic.c: 448: _delay((unsigned long)((25)*(16000000/4000.0)));
  3010  001242  0E82               	movlw	130
  3011  001244  0100               	movlb	0	; () banked
  3012  001246  6F78               	movwf	??_playStunSelf& (0+255),b
  3013  001248  0EDE               	movlw	222
  3014  00124A                     u1557:
  3015  00124A  2EE8               	decfsz	wreg,f,c
  3016  00124C  D7FE               	goto	u1557
  3017  00124E  2F78               	decfsz	??_playStunSelf& (0+255),f,b
  3018  001250  D7FC               	goto	u1557
  3019                           
  3020                           ;LEDLogic.c: 449: _delay((unsigned long)((25)*(16000000/4000.0)));
  3021  001252  0E82               	movlw	130
  3022  001254  0100               	movlb	0	; () banked
  3023  001256  6F78               	movwf	??_playStunSelf& (0+255),b
  3024  001258  0EDE               	movlw	222
  3025  00125A                     u1567:
  3026  00125A  2EE8               	decfsz	wreg,f,c
  3027  00125C  D7FE               	goto	u1567
  3028  00125E  2F78               	decfsz	??_playStunSelf& (0+255),f,b
  3029  001260  D7FC               	goto	u1567
  3030                           
  3031                           ;LEDLogic.c: 450: _delay((unsigned long)((25)*(16000000/4000.0)));
  3032  001262  0E82               	movlw	130
  3033  001264  0100               	movlb	0	; () banked
  3034  001266  6F78               	movwf	??_playStunSelf& (0+255),b
  3035  001268  0EDE               	movlw	222
  3036  00126A                     u1577:
  3037  00126A  2EE8               	decfsz	wreg,f,c
  3038  00126C  D7FE               	goto	u1577
  3039  00126E  2F78               	decfsz	??_playStunSelf& (0+255),f,b
  3040  001270  D7FC               	goto	u1577
  3041                           
  3042                           ;LEDLogic.c: 451: _delay((unsigned long)((25)*(16000000/4000.0)));
  3043  001272  0E82               	movlw	130
  3044  001274  0100               	movlb	0	; () banked
  3045  001276  6F78               	movwf	??_playStunSelf& (0+255),b
  3046  001278  0EDE               	movlw	222
  3047  00127A                     u1587:
  3048  00127A  2EE8               	decfsz	wreg,f,c
  3049  00127C  D7FE               	goto	u1587
  3050  00127E  2F78               	decfsz	??_playStunSelf& (0+255),f,b
  3051  001280  D7FC               	goto	u1587
  3052                           
  3053                           ;LEDLogic.c: 452: _delay((unsigned long)((25)*(16000000/4000.0)));
  3054  001282  0E82               	movlw	130
  3055  001284  0100               	movlb	0	; () banked
  3056  001286  6F78               	movwf	??_playStunSelf& (0+255),b
  3057  001288  0EDE               	movlw	222
  3058  00128A                     u1597:
  3059  00128A  2EE8               	decfsz	wreg,f,c
  3060  00128C  D7FE               	goto	u1597
  3061  00128E  2F78               	decfsz	??_playStunSelf& (0+255),f,b
  3062  001290  D7FC               	goto	u1597
  3063                           
  3064                           ;LEDLogic.c: 453: clearPattern();
  3065  001292  EC90  F00E         	call	_clearPattern	;wreg free
  3066                           
  3067                           ;LEDLogic.c: 454: _delay((unsigned long)((25)*(16000000/4000.0)));
  3068  001296  0E82               	movlw	130
  3069  001298  0100               	movlb	0	; () banked
  3070  00129A  6F78               	movwf	??_playStunSelf& (0+255),b
  3071  00129C  0EDE               	movlw	222
  3072  00129E                     u1607:
  3073  00129E  2EE8               	decfsz	wreg,f,c
  3074  0012A0  D7FE               	goto	u1607
  3075  0012A2  2F78               	decfsz	??_playStunSelf& (0+255),f,b
  3076  0012A4  D7FC               	goto	u1607
  3077                           
  3078                           ;LEDLogic.c: 455: _delay((unsigned long)((25)*(16000000/4000.0)));
  3079  0012A6  0E82               	movlw	130
  3080  0012A8  0100               	movlb	0	; () banked
  3081  0012AA  6F78               	movwf	??_playStunSelf& (0+255),b
  3082  0012AC  0EDE               	movlw	222
  3083  0012AE                     u1617:
  3084  0012AE  2EE8               	decfsz	wreg,f,c
  3085  0012B0  D7FE               	goto	u1617
  3086  0012B2  2F78               	decfsz	??_playStunSelf& (0+255),f,b
  3087  0012B4  D7FC               	goto	u1617
  3088                           
  3089                           ;LEDLogic.c: 456: _delay((unsigned long)((25)*(16000000/4000.0)));
  3090  0012B6  0E82               	movlw	130
  3091  0012B8  0100               	movlb	0	; () banked
  3092  0012BA  6F78               	movwf	??_playStunSelf& (0+255),b
  3093  0012BC  0EDE               	movlw	222
  3094  0012BE                     u1627:
  3095  0012BE  2EE8               	decfsz	wreg,f,c
  3096  0012C0  D7FE               	goto	u1627
  3097  0012C2  2F78               	decfsz	??_playStunSelf& (0+255),f,b
  3098  0012C4  D7FC               	goto	u1627
  3099                           
  3100                           ;LEDLogic.c: 457: _delay((unsigned long)((25)*(16000000/4000.0)));
  3101  0012C6  0E82               	movlw	130
  3102  0012C8  0100               	movlb	0	; () banked
  3103  0012CA  6F78               	movwf	??_playStunSelf& (0+255),b
  3104  0012CC  0EDE               	movlw	222
  3105  0012CE                     u1637:
  3106  0012CE  2EE8               	decfsz	wreg,f,c
  3107  0012D0  D7FE               	goto	u1637
  3108  0012D2  2F78               	decfsz	??_playStunSelf& (0+255),f,b
  3109  0012D4  D7FC               	goto	u1637
  3110                           
  3111                           ;LEDLogic.c: 458: _delay((unsigned long)((25)*(16000000/4000.0)));
  3112  0012D6  0E82               	movlw	130
  3113  0012D8  0100               	movlb	0	; () banked
  3114  0012DA  6F78               	movwf	??_playStunSelf& (0+255),b
  3115  0012DC  0EDE               	movlw	222
  3116  0012DE                     u1647:
  3117  0012DE  2EE8               	decfsz	wreg,f,c
  3118  0012E0  D7FE               	goto	u1647
  3119  0012E2  2F78               	decfsz	??_playStunSelf& (0+255),f,b
  3120  0012E4  D7FC               	goto	u1647
  3121                           
  3122                           ;LEDLogic.c: 459: _delay((unsigned long)((25)*(16000000/4000.0)));
  3123  0012E6  0E82               	movlw	130
  3124  0012E8  0100               	movlb	0	; () banked
  3125  0012EA  6F78               	movwf	??_playStunSelf& (0+255),b
  3126  0012EC  0EDE               	movlw	222
  3127  0012EE                     u1657:
  3128  0012EE  2EE8               	decfsz	wreg,f,c
  3129  0012F0  D7FE               	goto	u1657
  3130  0012F2  2F78               	decfsz	??_playStunSelf& (0+255),f,b
  3131  0012F4  D7FC               	goto	u1657
  3132                           
  3133                           ;LEDLogic.c: 460: _delay((unsigned long)((25)*(16000000/4000.0)));
  3134  0012F6  0E82               	movlw	130
  3135  0012F8  0100               	movlb	0	; () banked
  3136  0012FA  6F78               	movwf	??_playStunSelf& (0+255),b
  3137  0012FC  0EDE               	movlw	222
  3138  0012FE                     u1667:
  3139  0012FE  2EE8               	decfsz	wreg,f,c
  3140  001300  D7FE               	goto	u1667
  3141  001302  2F78               	decfsz	??_playStunSelf& (0+255),f,b
  3142  001304  D7FC               	goto	u1667
  3143                           
  3144                           ;LEDLogic.c: 461: _delay((unsigned long)((25)*(16000000/4000.0)));
  3145  001306  0E82               	movlw	130
  3146  001308  0100               	movlb	0	; () banked
  3147  00130A  6F78               	movwf	??_playStunSelf& (0+255),b
  3148  00130C  0EDE               	movlw	222
  3149  00130E                     u1677:
  3150  00130E  2EE8               	decfsz	wreg,f,c
  3151  001310  D7FE               	goto	u1677
  3152  001312  2F78               	decfsz	??_playStunSelf& (0+255),f,b
  3153  001314  D7FC               	goto	u1677
  3154                           
  3155                           ;LEDLogic.c: 462: _delay((unsigned long)((25)*(16000000/4000.0)));
  3156  001316  0E82               	movlw	130
  3157  001318  0100               	movlb	0	; () banked
  3158  00131A  6F78               	movwf	??_playStunSelf& (0+255),b
  3159  00131C  0EDE               	movlw	222
  3160  00131E                     u1687:
  3161  00131E  2EE8               	decfsz	wreg,f,c
  3162  001320  D7FE               	goto	u1687
  3163  001322  2F78               	decfsz	??_playStunSelf& (0+255),f,b
  3164  001324  D7FC               	goto	u1687
  3165                           
  3166                           ;LEDLogic.c: 463: _delay((unsigned long)((25)*(16000000/4000.0)));
  3167  001326  0E82               	movlw	130
  3168  001328  0100               	movlb	0	; () banked
  3169  00132A  6F78               	movwf	??_playStunSelf& (0+255),b
  3170  00132C  0EDE               	movlw	222
  3171  00132E                     u1697:
  3172  00132E  2EE8               	decfsz	wreg,f,c
  3173  001330  D7FE               	goto	u1697
  3174  001332  2F78               	decfsz	??_playStunSelf& (0+255),f,b
  3175  001334  D7FC               	goto	u1697
  3176  001336  0012               	return		;funcret
  3177  001338                     __end_of_playStunSelf:
  3178                           	opt stack 0
  3179                           intcon	equ	0xFF2
  3180                           intcon2	equ	0xFF1
  3181                           postinc0	equ	0xFEE
  3182                           wreg	equ	0xFE8
  3183                           
  3184 ;; *************** function _playStun *****************
  3185 ;; Defined at:
  3186 ;;		line 403 in file "LEDLogic.c"
  3187 ;; Parameters:    Size  Location     Type
  3188 ;;		None
  3189 ;; Auto vars:     Size  Location     Type
  3190 ;;  i               1    4[BANK0 ] char 
  3191 ;;  j               1    3[BANK0 ] char 
  3192 ;; Return value:  Size  Location     Type
  3193 ;;                  1    wreg      void 
  3194 ;; Registers used:
  3195 ;;		wreg, status,2, status,0, cstack
  3196 ;; Tracked objects:
  3197 ;;		On entry : 0/0
  3198 ;;		On exit  : F/0
  3199 ;;		Unchanged: 0/0
  3200 ;; Data sizes:     COMRAM   BANK0   BANK1   BANK2   BANK3   BANK4   BANK5   BANK6   BANK7   BANK8   BANK9  BANK10  BANK1
      +1  BANK12  BANK13  BANK14  BANK15
  3201 ;;      Params:         0       0       0       0       0       0       0       0       0       0       0       0       
      +0       0       0       0       0
  3202 ;;      Locals:         0       2       0       0       0       0       0       0       0       0       0       0       
      +0       0       0       0       0
  3203 ;;      Temps:          0       0       0       0       0       0       0       0       0       0       0       0       
      +0       0       0       0       0
  3204 ;;      Totals:         0       2       0       0       0       0       0       0       0       0       0       0       
      +0       0       0       0       0
  3205 ;;Total ram usage:        2 bytes
  3206 ;; Hardware stack levels used:    1
  3207 ;; Hardware stack levels required when called:    6
  3208 ;; This function calls:
  3209 ;;		_colorRed
  3210 ;;		_colorYellow
  3211 ;;		_delay_25ms_n_times
  3212 ;; This function is called by:
  3213 ;;		_LED_play_pattern
  3214 ;; This function uses a non-reentrant model
  3215 ;;
  3216                           
  3217                           	psect	text25
  3218  001ADA                     __ptext25:
  3219                           	opt stack 0
  3220  001ADA                     _playStun:
  3221                           	opt stack 23
  3222                           
  3223                           ;LEDLogic.c: 405: int8_t j = 0;
  3224                           
  3225                           ;incstack = 0
  3226  001ADA  0100               	movlb	0	; () banked
  3227  001ADC  6B78               	clrf	playStun@j& (0+255),b
  3228                           
  3229                           ;LEDLogic.c: 406: int8_t i;
  3230                           ;LEDLogic.c: 408: while (j < 10) {
  3231  001ADE  D02B               	goto	l3278
  3232  001AE0                     l351:
  3233                           
  3234                           ; BSR set to: 0
  3235                           ;LEDLogic.c: 410: for (i = 0; i < 24; i++) {
  3236  001AE0  6B79               	clrf	playStun@i& (0+255),b
  3237  001AE2                     l352:
  3238                           
  3239                           ; BSR set to: 0
  3240                           ;LEDLogic.c: 412: if(i % 2) {
  3241  001AE2  A179               	btfss	playStun@i& (0+255),0,b
  3242  001AE4  D003               	goto	l3252
  3243                           
  3244                           ; BSR set to: 0
  3245                           ;LEDLogic.c: 413: colorRed();
  3246  001AE6  EC58  F00B         	call	_colorRed	;wreg free
  3247                           
  3248                           ;LEDLogic.c: 414: } else {
  3249  001AEA  D002               	goto	l3254
  3250  001AEC                     l3252:
  3251                           
  3252                           ; BSR set to: 0
  3253                           ;LEDLogic.c: 415: colorYellow();
  3254  001AEC  EC0D  F00A         	call	_colorYellow	;wreg free
  3255  001AF0                     l3254:
  3256  001AF0  0100               	movlb	0	; () banked
  3257  001AF2  2B79               	incf	playStun@i& (0+255),f,b
  3258                           
  3259                           ; BSR set to: 0
  3260  001AF4  5179               	movf	playStun@i& (0+255),w,b
  3261  001AF6  0A80               	xorlw	128
  3262  001AF8  0F68               	addlw	-152
  3263  001AFA  E3F3               	bnc	l352
  3264                           
  3265                           ; BSR set to: 0
  3266                           ;LEDLogic.c: 416: }
  3267                           ;LEDLogic.c: 417: }
  3268                           ;LEDLogic.c: 419: delay_25ms_n_times(11);
  3269  001AFC  0E00               	movlw	0
  3270  001AFE  6F76               	movwf	(delay_25ms_n_times@n+1)& (0+255),b
  3271  001B00  0E0B               	movlw	11
  3272  001B02  6F75               	movwf	delay_25ms_n_times@n& (0+255),b
  3273  001B04  EC47  F00E         	call	_delay_25ms_n_times	;wreg free
  3274                           
  3275                           ;LEDLogic.c: 421: for (i = 0; i < 24; i++) {
  3276  001B08  0100               	movlb	0	; () banked
  3277  001B0A  6B79               	clrf	playStun@i& (0+255),b
  3278  001B0C                     l356:
  3279                           
  3280                           ; BSR set to: 0
  3281                           ;LEDLogic.c: 423: if(i % 2){
  3282  001B0C  A179               	btfss	playStun@i& (0+255),0,b
  3283  001B0E  D003               	goto	l3268
  3284                           
  3285                           ; BSR set to: 0
  3286                           ;LEDLogic.c: 424: colorYellow();
  3287  001B10  EC0D  F00A         	call	_colorYellow	;wreg free
  3288                           
  3289                           ;LEDLogic.c: 425: } else {
  3290  001B14  D002               	goto	l3270
  3291  001B16                     l3268:
  3292                           
  3293                           ; BSR set to: 0
  3294                           ;LEDLogic.c: 426: colorRed();
  3295  001B16  EC58  F00B         	call	_colorRed	;wreg free
  3296  001B1A                     l3270:
  3297  001B1A  0100               	movlb	0	; () banked
  3298  001B1C  2B79               	incf	playStun@i& (0+255),f,b
  3299                           
  3300                           ; BSR set to: 0
  3301  001B1E  5179               	movf	playStun@i& (0+255),w,b
  3302  001B20  0A80               	xorlw	128
  3303  001B22  0F68               	addlw	-152
  3304  001B24  E3F3               	bnc	l356
  3305                           
  3306                           ; BSR set to: 0
  3307                           ;LEDLogic.c: 427: }
  3308                           ;LEDLogic.c: 428: }
  3309                           ;LEDLogic.c: 430: delay_25ms_n_times(11);
  3310  001B26  0E00               	movlw	0
  3311  001B28  6F76               	movwf	(delay_25ms_n_times@n+1)& (0+255),b
  3312  001B2A  0E0B               	movlw	11
  3313  001B2C  6F75               	movwf	delay_25ms_n_times@n& (0+255),b
  3314  001B2E  EC47  F00E         	call	_delay_25ms_n_times	;wreg free
  3315                           
  3316                           ;LEDLogic.c: 432: j++;
  3317  001B32  0100               	movlb	0	; () banked
  3318  001B34  2B78               	incf	playStun@j& (0+255),f,b
  3319  001B36                     l3278:
  3320                           
  3321                           ; BSR set to: 0
  3322  001B36  5178               	movf	playStun@j& (0+255),w,b
  3323  001B38  0A80               	xorlw	128
  3324  001B3A  0F76               	addlw	-138
  3325  001B3C  E3D1               	bnc	l351
  3326                           
  3327                           ; BSR set to: 0
  3328  001B3E  0012               	return		;funcret
  3329  001B40                     __end_of_playStun:
  3330                           	opt stack 0
  3331                           intcon	equ	0xFF2
  3332                           intcon2	equ	0xFF1
  3333                           postinc0	equ	0xFEE
  3334                           wreg	equ	0xFE8
  3335                           
  3336 ;; *************** function _colorYellow *****************
  3337 ;; Defined at:
  3338 ;;		line 146 in file "LEDLogic.c"
  3339 ;; Parameters:    Size  Location     Type
  3340 ;;		None
  3341 ;; Auto vars:     Size  Location     Type
  3342 ;;		None
  3343 ;; Return value:  Size  Location     Type
  3344 ;;                  1    wreg      void 
  3345 ;; Registers used:
  3346 ;;		cstack
  3347 ;; Tracked objects:
  3348 ;;		On entry : 0/0
  3349 ;;		On exit  : 0/0
  3350 ;;		Unchanged: 0/0
  3351 ;; Data sizes:     COMRAM   BANK0   BANK1   BANK2   BANK3   BANK4   BANK5   BANK6   BANK7   BANK8   BANK9  BANK10  BANK1
      +1  BANK12  BANK13  BANK14  BANK15
  3352 ;;      Params:         0       0       0       0       0       0       0       0       0       0       0       0       
      +0       0       0       0       0
  3353 ;;      Locals:         0       0       0       0       0       0       0       0       0       0       0       0       
      +0       0       0       0       0
  3354 ;;      Temps:          0       0       0       0       0       0       0       0       0       0       0       0       
      +0       0       0       0       0
  3355 ;;      Totals:         0       0       0       0       0       0       0       0       0       0       0       0       
      +0       0       0       0       0
  3356 ;;Total ram usage:        0 bytes
  3357 ;; Hardware stack levels used:    1
  3358 ;; Hardware stack levels required when called:    5
  3359 ;; This function calls:
  3360 ;;		_LEDOne
  3361 ;;		_LEDZero
  3362 ;; This function is called by:
  3363 ;;		_playStun
  3364 ;;		_playStunSelf
  3365 ;;		_playTestPassed
  3366 ;; This function uses a non-reentrant model
  3367 ;;
  3368                           
  3369                           	psect	text26
  3370  00141A                     __ptext26:
  3371                           	opt stack 0
  3372  00141A                     _colorYellow:
  3373                           	opt stack 0
  3374  00141A                     i25L__ptext40:
  3375                           	opt stack 0
  3376  00141A                     i25L_LEDOne:
  3377                           	opt stack 0
  3378  00141A                     i25Ll3092:
  3379                           	opt stack 23
  3380                           
  3381                           ;LEDLogic.c: 10: LATBbits.LATB4 = 1;
  3382  00141A  888A               	bsf	3978,4,c	;volatile
  3383                           
  3384                           ;LEDLogic.c: 11: __nop();
  3385  00141C  F000               	nop	
  3386                           
  3387                           ;LEDLogic.c: 12: __nop();
  3388  00141E  F000               	nop	
  3389                           
  3390                           ;LEDLogic.c: 13: LATBbits.LATB4 = 0;
  3391  001420  988A               	bcf	3978,4,c	;volatile
  3392                           
  3393                           ;LEDLogic.c: 14: __nop();
  3394  001422  F000               	nop	
  3395  001424                     i25Ll274:
  3396                           	opt stack 0
  3397  001424                     i26L__ptext40:
  3398                           	opt stack 0
  3399  001424                     i26L_LEDOne:
  3400                           	opt stack 0
  3401  001424                     i26Ll3092:
  3402                           	opt stack 23
  3403                           
  3404                           ;LEDLogic.c: 10: LATBbits.LATB4 = 1;
  3405  001424  888A               	bsf	3978,4,c	;volatile
  3406                           
  3407                           ;LEDLogic.c: 11: __nop();
  3408  001426  F000               	nop	
  3409                           
  3410                           ;LEDLogic.c: 12: __nop();
  3411  001428  F000               	nop	
  3412                           
  3413                           ;LEDLogic.c: 13: LATBbits.LATB4 = 0;
  3414  00142A  988A               	bcf	3978,4,c	;volatile
  3415                           
  3416                           ;LEDLogic.c: 14: __nop();
  3417  00142C  F000               	nop	
  3418  00142E                     i26Ll274:
  3419                           	opt stack 0
  3420  00142E                     i27L__ptext40:
  3421                           	opt stack 0
  3422  00142E                     i27L_LEDOne:
  3423                           	opt stack 0
  3424  00142E                     i27Ll3092:
  3425                           	opt stack 23
  3426                           
  3427                           ;LEDLogic.c: 10: LATBbits.LATB4 = 1;
  3428  00142E  888A               	bsf	3978,4,c	;volatile
  3429                           
  3430                           ;LEDLogic.c: 11: __nop();
  3431  001430  F000               	nop	
  3432                           
  3433                           ;LEDLogic.c: 12: __nop();
  3434  001432  F000               	nop	
  3435                           
  3436                           ;LEDLogic.c: 13: LATBbits.LATB4 = 0;
  3437  001434  988A               	bcf	3978,4,c	;volatile
  3438                           
  3439                           ;LEDLogic.c: 14: __nop();
  3440  001436  F000               	nop	
  3441  001438                     i27Ll274:
  3442                           	opt stack 0
  3443  001438                     i28L__ptext40:
  3444                           	opt stack 0
  3445  001438                     i28L_LEDOne:
  3446                           	opt stack 0
  3447  001438                     i28Ll3092:
  3448                           	opt stack 23
  3449                           
  3450                           ;LEDLogic.c: 10: LATBbits.LATB4 = 1;
  3451  001438  888A               	bsf	3978,4,c	;volatile
  3452                           
  3453                           ;LEDLogic.c: 11: __nop();
  3454  00143A  F000               	nop	
  3455                           
  3456                           ;LEDLogic.c: 12: __nop();
  3457  00143C  F000               	nop	
  3458                           
  3459                           ;LEDLogic.c: 13: LATBbits.LATB4 = 0;
  3460  00143E  988A               	bcf	3978,4,c	;volatile
  3461                           
  3462                           ;LEDLogic.c: 14: __nop();
  3463  001440  F000               	nop	
  3464  001442                     i28Ll274:
  3465                           	opt stack 0
  3466  001442                     i29L__ptext40:
  3467                           	opt stack 0
  3468  001442                     i29L_LEDOne:
  3469                           	opt stack 0
  3470  001442                     i29Ll3092:
  3471                           	opt stack 23
  3472                           
  3473                           ;LEDLogic.c: 10: LATBbits.LATB4 = 1;
  3474  001442  888A               	bsf	3978,4,c	;volatile
  3475                           
  3476                           ;LEDLogic.c: 11: __nop();
  3477  001444  F000               	nop	
  3478                           
  3479                           ;LEDLogic.c: 12: __nop();
  3480  001446  F000               	nop	
  3481                           
  3482                           ;LEDLogic.c: 13: LATBbits.LATB4 = 0;
  3483  001448  988A               	bcf	3978,4,c	;volatile
  3484                           
  3485                           ;LEDLogic.c: 14: __nop();
  3486  00144A  F000               	nop	
  3487  00144C                     i29Ll274:
  3488                           	opt stack 0
  3489  00144C                     i30L__ptext40:
  3490                           	opt stack 0
  3491  00144C                     i30L_LEDOne:
  3492                           	opt stack 0
  3493  00144C                     i30Ll3092:
  3494                           	opt stack 23
  3495                           
  3496                           ;LEDLogic.c: 10: LATBbits.LATB4 = 1;
  3497  00144C  888A               	bsf	3978,4,c	;volatile
  3498                           
  3499                           ;LEDLogic.c: 11: __nop();
  3500  00144E  F000               	nop	
  3501                           
  3502                           ;LEDLogic.c: 12: __nop();
  3503  001450  F000               	nop	
  3504                           
  3505                           ;LEDLogic.c: 13: LATBbits.LATB4 = 0;
  3506  001452  988A               	bcf	3978,4,c	;volatile
  3507                           
  3508                           ;LEDLogic.c: 14: __nop();
  3509  001454  F000               	nop	
  3510  001456                     i30Ll274:
  3511                           	opt stack 0
  3512  001456                     i31L__ptext40:
  3513                           	opt stack 0
  3514  001456                     i31L_LEDOne:
  3515                           	opt stack 0
  3516  001456                     i31Ll3092:
  3517                           	opt stack 23
  3518                           
  3519                           ;LEDLogic.c: 10: LATBbits.LATB4 = 1;
  3520  001456  888A               	bsf	3978,4,c	;volatile
  3521                           
  3522                           ;LEDLogic.c: 11: __nop();
  3523  001458  F000               	nop	
  3524                           
  3525                           ;LEDLogic.c: 12: __nop();
  3526  00145A  F000               	nop	
  3527                           
  3528                           ;LEDLogic.c: 13: LATBbits.LATB4 = 0;
  3529  00145C  988A               	bcf	3978,4,c	;volatile
  3530                           
  3531                           ;LEDLogic.c: 14: __nop();
  3532  00145E  F000               	nop	
  3533  001460                     i31Ll274:
  3534                           	opt stack 0
  3535  001460                     i32L__ptext40:
  3536                           	opt stack 0
  3537  001460                     i32L_LEDOne:
  3538                           	opt stack 0
  3539  001460                     i32Ll3092:
  3540                           	opt stack 23
  3541                           
  3542                           ;LEDLogic.c: 10: LATBbits.LATB4 = 1;
  3543  001460  888A               	bsf	3978,4,c	;volatile
  3544                           
  3545                           ;LEDLogic.c: 11: __nop();
  3546  001462  F000               	nop	
  3547                           
  3548                           ;LEDLogic.c: 12: __nop();
  3549  001464  F000               	nop	
  3550                           
  3551                           ;LEDLogic.c: 13: LATBbits.LATB4 = 0;
  3552  001466  988A               	bcf	3978,4,c	;volatile
  3553                           
  3554                           ;LEDLogic.c: 14: __nop();
  3555  001468  F000               	nop	
  3556  00146A                     i32Ll274:
  3557                           	opt stack 0
  3558  00146A                     i33L__ptext40:
  3559                           	opt stack 0
  3560  00146A                     i33L_LEDOne:
  3561                           	opt stack 0
  3562  00146A                     i33Ll3092:
  3563                           	opt stack 23
  3564                           
  3565                           ;LEDLogic.c: 10: LATBbits.LATB4 = 1;
  3566  00146A  888A               	bsf	3978,4,c	;volatile
  3567                           
  3568                           ;LEDLogic.c: 11: __nop();
  3569  00146C  F000               	nop	
  3570                           
  3571                           ;LEDLogic.c: 12: __nop();
  3572  00146E  F000               	nop	
  3573                           
  3574                           ;LEDLogic.c: 13: LATBbits.LATB4 = 0;
  3575  001470  988A               	bcf	3978,4,c	;volatile
  3576                           
  3577                           ;LEDLogic.c: 14: __nop();
  3578  001472  F000               	nop	
  3579  001474                     i33Ll274:
  3580                           	opt stack 0
  3581  001474                     i34L__ptext40:
  3582                           	opt stack 0
  3583  001474                     i34L_LEDOne:
  3584                           	opt stack 0
  3585  001474                     i34Ll3092:
  3586                           	opt stack 23
  3587                           
  3588                           ;LEDLogic.c: 10: LATBbits.LATB4 = 1;
  3589  001474  888A               	bsf	3978,4,c	;volatile
  3590                           
  3591                           ;LEDLogic.c: 11: __nop();
  3592  001476  F000               	nop	
  3593                           
  3594                           ;LEDLogic.c: 12: __nop();
  3595  001478  F000               	nop	
  3596                           
  3597                           ;LEDLogic.c: 13: LATBbits.LATB4 = 0;
  3598  00147A  988A               	bcf	3978,4,c	;volatile
  3599                           
  3600                           ;LEDLogic.c: 14: __nop();
  3601  00147C  F000               	nop	
  3602  00147E                     i34Ll274:
  3603                           	opt stack 0
  3604  00147E                     i35L__ptext40:
  3605                           	opt stack 0
  3606  00147E                     i35L_LEDOne:
  3607                           	opt stack 0
  3608  00147E                     i35Ll3092:
  3609                           	opt stack 23
  3610                           
  3611                           ;LEDLogic.c: 10: LATBbits.LATB4 = 1;
  3612  00147E  888A               	bsf	3978,4,c	;volatile
  3613                           
  3614                           ;LEDLogic.c: 11: __nop();
  3615  001480  F000               	nop	
  3616                           
  3617                           ;LEDLogic.c: 12: __nop();
  3618  001482  F000               	nop	
  3619                           
  3620                           ;LEDLogic.c: 13: LATBbits.LATB4 = 0;
  3621  001484  988A               	bcf	3978,4,c	;volatile
  3622                           
  3623                           ;LEDLogic.c: 14: __nop();
  3624  001486  F000               	nop	
  3625  001488                     i35Ll274:
  3626                           	opt stack 0
  3627  001488                     i36L__ptext40:
  3628                           	opt stack 0
  3629  001488                     i36L_LEDOne:
  3630                           	opt stack 0
  3631  001488                     i36Ll3092:
  3632                           	opt stack 23
  3633                           
  3634                           ;LEDLogic.c: 10: LATBbits.LATB4 = 1;
  3635  001488  888A               	bsf	3978,4,c	;volatile
  3636                           
  3637                           ;LEDLogic.c: 11: __nop();
  3638  00148A  F000               	nop	
  3639                           
  3640                           ;LEDLogic.c: 12: __nop();
  3641  00148C  F000               	nop	
  3642                           
  3643                           ;LEDLogic.c: 13: LATBbits.LATB4 = 0;
  3644  00148E  988A               	bcf	3978,4,c	;volatile
  3645                           
  3646                           ;LEDLogic.c: 14: __nop();
  3647  001490  F000               	nop	
  3648  001492                     i36Ll274:
  3649                           	opt stack 0
  3650  001492                     i37L__ptext40:
  3651                           	opt stack 0
  3652  001492                     i37L_LEDOne:
  3653                           	opt stack 0
  3654  001492                     i37Ll3092:
  3655                           	opt stack 23
  3656                           
  3657                           ;LEDLogic.c: 10: LATBbits.LATB4 = 1;
  3658  001492  888A               	bsf	3978,4,c	;volatile
  3659                           
  3660                           ;LEDLogic.c: 11: __nop();
  3661  001494  F000               	nop	
  3662                           
  3663                           ;LEDLogic.c: 12: __nop();
  3664  001496  F000               	nop	
  3665                           
  3666                           ;LEDLogic.c: 13: LATBbits.LATB4 = 0;
  3667  001498  988A               	bcf	3978,4,c	;volatile
  3668                           
  3669                           ;LEDLogic.c: 14: __nop();
  3670  00149A  F000               	nop	
  3671  00149C                     i37Ll274:
  3672                           	opt stack 0
  3673  00149C                     i38L__ptext40:
  3674                           	opt stack 0
  3675  00149C                     i38L_LEDOne:
  3676                           	opt stack 0
  3677  00149C                     i38Ll3092:
  3678                           	opt stack 23
  3679                           
  3680                           ;LEDLogic.c: 10: LATBbits.LATB4 = 1;
  3681  00149C  888A               	bsf	3978,4,c	;volatile
  3682                           
  3683                           ;LEDLogic.c: 11: __nop();
  3684  00149E  F000               	nop	
  3685                           
  3686                           ;LEDLogic.c: 12: __nop();
  3687  0014A0  F000               	nop	
  3688                           
  3689                           ;LEDLogic.c: 13: LATBbits.LATB4 = 0;
  3690  0014A2  988A               	bcf	3978,4,c	;volatile
  3691                           
  3692                           ;LEDLogic.c: 14: __nop();
  3693  0014A4  F000               	nop	
  3694  0014A6                     i38Ll274:
  3695                           	opt stack 0
  3696  0014A6                     i39L__ptext40:
  3697                           	opt stack 0
  3698  0014A6                     i39L_LEDOne:
  3699                           	opt stack 0
  3700  0014A6                     i39Ll3092:
  3701                           	opt stack 23
  3702                           
  3703                           ;LEDLogic.c: 10: LATBbits.LATB4 = 1;
  3704  0014A6  888A               	bsf	3978,4,c	;volatile
  3705                           
  3706                           ;LEDLogic.c: 11: __nop();
  3707  0014A8  F000               	nop	
  3708                           
  3709                           ;LEDLogic.c: 12: __nop();
  3710  0014AA  F000               	nop	
  3711                           
  3712                           ;LEDLogic.c: 13: LATBbits.LATB4 = 0;
  3713  0014AC  988A               	bcf	3978,4,c	;volatile
  3714                           
  3715                           ;LEDLogic.c: 14: __nop();
  3716  0014AE  F000               	nop	
  3717  0014B0                     i39Ll274:
  3718                           	opt stack 0
  3719  0014B0                     i40L__ptext40:
  3720                           	opt stack 0
  3721  0014B0                     i40L_LEDOne:
  3722                           	opt stack 0
  3723  0014B0                     i40Ll3092:
  3724                           	opt stack 23
  3725                           
  3726                           ;LEDLogic.c: 10: LATBbits.LATB4 = 1;
  3727  0014B0  888A               	bsf	3978,4,c	;volatile
  3728                           
  3729                           ;LEDLogic.c: 11: __nop();
  3730  0014B2  F000               	nop	
  3731                           
  3732                           ;LEDLogic.c: 12: __nop();
  3733  0014B4  F000               	nop	
  3734                           
  3735                           ;LEDLogic.c: 13: LATBbits.LATB4 = 0;
  3736  0014B6  988A               	bcf	3978,4,c	;volatile
  3737                           
  3738                           ;LEDLogic.c: 14: __nop();
  3739  0014B8  F000               	nop	
  3740  0014BA                     i40Ll274:
  3741                           	opt stack 0
  3742  0014BA                     i41L__ptext39:
  3743                           	opt stack 0
  3744  0014BA                     i41L_LEDZero:
  3745                           	opt stack 0
  3746  0014BA                     i41Ll3090:
  3747                           	opt stack 23
  3748                           
  3749                           ;LEDLogic.c: 20: LATBbits.LATB4 = 1;
  3750  0014BA  888A               	bsf	3978,4,c	;volatile
  3751                           
  3752                           ;LEDLogic.c: 21: __nop();
  3753  0014BC  F000               	nop	
  3754                           
  3755                           ;LEDLogic.c: 22: LATBbits.LATB4 = 0;
  3756  0014BE  988A               	bcf	3978,4,c	;volatile
  3757                           
  3758                           ;LEDLogic.c: 23: __nop();
  3759  0014C0  F000               	nop	
  3760  0014C2                     i41Ll277:
  3761                           	opt stack 0
  3762  0014C2                     i42L__ptext39:
  3763                           	opt stack 0
  3764  0014C2                     i42L_LEDZero:
  3765                           	opt stack 0
  3766  0014C2                     i42Ll3090:
  3767                           	opt stack 23
  3768                           
  3769                           ;LEDLogic.c: 20: LATBbits.LATB4 = 1;
  3770  0014C2  888A               	bsf	3978,4,c	;volatile
  3771                           
  3772                           ;LEDLogic.c: 21: __nop();
  3773  0014C4  F000               	nop	
  3774                           
  3775                           ;LEDLogic.c: 22: LATBbits.LATB4 = 0;
  3776  0014C6  988A               	bcf	3978,4,c	;volatile
  3777                           
  3778                           ;LEDLogic.c: 23: __nop();
  3779  0014C8  F000               	nop	
  3780  0014CA                     i42Ll277:
  3781                           	opt stack 0
  3782  0014CA                     i43L__ptext39:
  3783                           	opt stack 0
  3784  0014CA                     i43L_LEDZero:
  3785                           	opt stack 0
  3786  0014CA                     i43Ll3090:
  3787                           	opt stack 23
  3788                           
  3789                           ;LEDLogic.c: 20: LATBbits.LATB4 = 1;
  3790  0014CA  888A               	bsf	3978,4,c	;volatile
  3791                           
  3792                           ;LEDLogic.c: 21: __nop();
  3793  0014CC  F000               	nop	
  3794                           
  3795                           ;LEDLogic.c: 22: LATBbits.LATB4 = 0;
  3796  0014CE  988A               	bcf	3978,4,c	;volatile
  3797                           
  3798                           ;LEDLogic.c: 23: __nop();
  3799  0014D0  F000               	nop	
  3800  0014D2                     i43Ll277:
  3801                           	opt stack 0
  3802  0014D2                     i44L__ptext39:
  3803                           	opt stack 0
  3804  0014D2                     i44L_LEDZero:
  3805                           	opt stack 0
  3806  0014D2                     i44Ll3090:
  3807                           	opt stack 23
  3808                           
  3809                           ;LEDLogic.c: 20: LATBbits.LATB4 = 1;
  3810  0014D2  888A               	bsf	3978,4,c	;volatile
  3811                           
  3812                           ;LEDLogic.c: 21: __nop();
  3813  0014D4  F000               	nop	
  3814                           
  3815                           ;LEDLogic.c: 22: LATBbits.LATB4 = 0;
  3816  0014D6  988A               	bcf	3978,4,c	;volatile
  3817                           
  3818                           ;LEDLogic.c: 23: __nop();
  3819  0014D8  F000               	nop	
  3820  0014DA                     i44Ll277:
  3821                           	opt stack 0
  3822  0014DA                     i45L__ptext39:
  3823                           	opt stack 0
  3824  0014DA                     i45L_LEDZero:
  3825                           	opt stack 0
  3826  0014DA                     i45Ll3090:
  3827                           	opt stack 23
  3828                           
  3829                           ;LEDLogic.c: 20: LATBbits.LATB4 = 1;
  3830  0014DA  888A               	bsf	3978,4,c	;volatile
  3831                           
  3832                           ;LEDLogic.c: 21: __nop();
  3833  0014DC  F000               	nop	
  3834                           
  3835                           ;LEDLogic.c: 22: LATBbits.LATB4 = 0;
  3836  0014DE  988A               	bcf	3978,4,c	;volatile
  3837                           
  3838                           ;LEDLogic.c: 23: __nop();
  3839  0014E0  F000               	nop	
  3840  0014E2                     i45Ll277:
  3841                           	opt stack 0
  3842  0014E2                     i46L__ptext39:
  3843                           	opt stack 0
  3844  0014E2                     i46L_LEDZero:
  3845                           	opt stack 0
  3846  0014E2                     i46Ll3090:
  3847                           	opt stack 23
  3848                           
  3849                           ;LEDLogic.c: 20: LATBbits.LATB4 = 1;
  3850  0014E2  888A               	bsf	3978,4,c	;volatile
  3851                           
  3852                           ;LEDLogic.c: 21: __nop();
  3853  0014E4  F000               	nop	
  3854                           
  3855                           ;LEDLogic.c: 22: LATBbits.LATB4 = 0;
  3856  0014E6  988A               	bcf	3978,4,c	;volatile
  3857                           
  3858                           ;LEDLogic.c: 23: __nop();
  3859  0014E8  F000               	nop	
  3860  0014EA                     i46Ll277:
  3861                           	opt stack 0
  3862  0014EA                     i47L__ptext39:
  3863                           	opt stack 0
  3864  0014EA                     i47L_LEDZero:
  3865                           	opt stack 0
  3866  0014EA                     i47Ll3090:
  3867                           	opt stack 23
  3868                           
  3869                           ;LEDLogic.c: 20: LATBbits.LATB4 = 1;
  3870  0014EA  888A               	bsf	3978,4,c	;volatile
  3871                           
  3872                           ;LEDLogic.c: 21: __nop();
  3873  0014EC  F000               	nop	
  3874                           
  3875                           ;LEDLogic.c: 22: LATBbits.LATB4 = 0;
  3876  0014EE  988A               	bcf	3978,4,c	;volatile
  3877                           
  3878                           ;LEDLogic.c: 23: __nop();
  3879  0014F0  F000               	nop	
  3880  0014F2                     i47Ll277:
  3881                           	opt stack 0
  3882  0014F2                     i48L__ptext39:
  3883                           	opt stack 0
  3884  0014F2                     i48L_LEDZero:
  3885                           	opt stack 0
  3886  0014F2                     i48Ll3090:
  3887                           	opt stack 23
  3888                           
  3889                           ;LEDLogic.c: 20: LATBbits.LATB4 = 1;
  3890  0014F2  888A               	bsf	3978,4,c	;volatile
  3891                           
  3892                           ;LEDLogic.c: 21: __nop();
  3893  0014F4  F000               	nop	
  3894                           
  3895                           ;LEDLogic.c: 22: LATBbits.LATB4 = 0;
  3896  0014F6  988A               	bcf	3978,4,c	;volatile
  3897                           
  3898                           ;LEDLogic.c: 23: __nop();
  3899  0014F8  F000               	nop	
  3900  0014FA                     i48Ll277:
  3901                           	opt stack 0
  3902  0014FA  0012               	return	
  3903  0014FC                     __end_of_colorYellow:
  3904                           	opt stack 0
  3905                           intcon	equ	0xFF2
  3906                           intcon2	equ	0xFF1
  3907                           postinc0	equ	0xFEE
  3908                           wreg	equ	0xFE8
  3909                           
  3910 ;; *************** function _playHeal *****************
  3911 ;; Defined at:
  3912 ;;		line 390 in file "LEDLogic.c"
  3913 ;; Parameters:    Size  Location     Type
  3914 ;;		None
  3915 ;; Auto vars:     Size  Location     Type
  3916 ;;  i               1    3[BANK0 ] char 
  3917 ;; Return value:  Size  Location     Type
  3918 ;;                  1    wreg      void 
  3919 ;; Registers used:
  3920 ;;		wreg, status,2, status,0, cstack
  3921 ;; Tracked objects:
  3922 ;;		On entry : 0/0
  3923 ;;		On exit  : 0/0
  3924 ;;		Unchanged: 0/0
  3925 ;; Data sizes:     COMRAM   BANK0   BANK1   BANK2   BANK3   BANK4   BANK5   BANK6   BANK7   BANK8   BANK9  BANK10  BANK1
      +1  BANK12  BANK13  BANK14  BANK15
  3926 ;;      Params:         0       0       0       0       0       0       0       0       0       0       0       0       
      +0       0       0       0       0
  3927 ;;      Locals:         0       1       0       0       0       0       0       0       0       0       0       0       
      +0       0       0       0       0
  3928 ;;      Temps:          0       0       0       0       0       0       0       0       0       0       0       0       
      +0       0       0       0       0
  3929 ;;      Totals:         0       1       0       0       0       0       0       0       0       0       0       0       
      +0       0       0       0       0
  3930 ;;Total ram usage:        1 bytes
  3931 ;; Hardware stack levels used:    1
  3932 ;; Hardware stack levels required when called:    6
  3933 ;; This function calls:
  3934 ;;		_colorGreen
  3935 ;;		_delay_25ms_n_times
  3936 ;; This function is called by:
  3937 ;;		_LED_play_pattern
  3938 ;; This function uses a non-reentrant model
  3939 ;;
  3940                           
  3941                           	psect	text27
  3942  001F5A                     __ptext27:
  3943                           	opt stack 0
  3944  001F5A                     _playHeal:
  3945                           	opt stack 23
  3946                           
  3947                           ;LEDLogic.c: 394: int8_t i;
  3948                           ;LEDLogic.c: 396: for (i = 0; i < 24; i++) {
  3949                           
  3950                           ;incstack = 0
  3951  001F5A  0100               	movlb	0	; () banked
  3952  001F5C  6B78               	clrf	playHeal@i& (0+255),b
  3953  001F5E                     l3236:
  3954                           
  3955                           ; BSR set to: 0
  3956                           ;LEDLogic.c: 397: colorGreen();
  3957  001F5E  ECEF  F00A         	call	_colorGreen	;wreg free
  3958  001F62  0100               	movlb	0	; () banked
  3959  001F64  2B78               	incf	playHeal@i& (0+255),f,b
  3960                           
  3961                           ; BSR set to: 0
  3962  001F66  5178               	movf	playHeal@i& (0+255),w,b
  3963  001F68  0A80               	xorlw	128
  3964  001F6A  0F68               	addlw	-152
  3965  001F6C  E3F8               	bnc	l3236
  3966                           
  3967                           ; BSR set to: 0
  3968                           ;LEDLogic.c: 398: }
  3969                           ;LEDLogic.c: 400: delay_25ms_n_times(360);
  3970  001F6E  0E01               	movlw	1
  3971  001F70  6F76               	movwf	(delay_25ms_n_times@n+1)& (0+255),b
  3972  001F72  0E68               	movlw	104
  3973  001F74  6F75               	movwf	delay_25ms_n_times@n& (0+255),b
  3974  001F76  EF47  F00E         	goto	_delay_25ms_n_times	;wreg free
  3975  001F7A                     __end_of_playHeal:
  3976                           	opt stack 0
  3977                           intcon	equ	0xFF2
  3978                           intcon2	equ	0xFF1
  3979                           postinc0	equ	0xFEE
  3980                           wreg	equ	0xFE8
  3981                           
  3982 ;; *************** function _colorGreen *****************
  3983 ;; Defined at:
  3984 ;;		line 116 in file "LEDLogic.c"
  3985 ;; Parameters:    Size  Location     Type
  3986 ;;		None
  3987 ;; Auto vars:     Size  Location     Type
  3988 ;;		None
  3989 ;; Return value:  Size  Location     Type
  3990 ;;                  1    wreg      void 
  3991 ;; Registers used:
  3992 ;;		cstack
  3993 ;; Tracked objects:
  3994 ;;		On entry : F/0
  3995 ;;		On exit  : 0/0
  3996 ;;		Unchanged: 0/0
  3997 ;; Data sizes:     COMRAM   BANK0   BANK1   BANK2   BANK3   BANK4   BANK5   BANK6   BANK7   BANK8   BANK9  BANK10  BANK1
      +1  BANK12  BANK13  BANK14  BANK15
  3998 ;;      Params:         0       0       0       0       0       0       0       0       0       0       0       0       
      +0       0       0       0       0
  3999 ;;      Locals:         0       0       0       0       0       0       0       0       0       0       0       0       
      +0       0       0       0       0
  4000 ;;      Temps:          0       0       0       0       0       0       0       0       0       0       0       0       
      +0       0       0       0       0
  4001 ;;      Totals:         0       0       0       0       0       0       0       0       0       0       0       0       
      +0       0       0       0       0
  4002 ;;Total ram usage:        0 bytes
  4003 ;; Hardware stack levels used:    1
  4004 ;; Hardware stack levels required when called:    5
  4005 ;; This function calls:
  4006 ;;		_LEDOne
  4007 ;;		_LEDZero
  4008 ;; This function is called by:
  4009 ;;		_playHeal
  4010 ;;		_playTestPassed
  4011 ;; This function uses a non-reentrant model
  4012 ;;
  4013                           
  4014                           	psect	text28
  4015  0015DE                     __ptext28:
  4016                           	opt stack 0
  4017  0015DE                     _colorGreen:
  4018                           	opt stack 0
  4019  0015DE                     i49L__ptext40:
  4020                           	opt stack 0
  4021  0015DE                     i49L_LEDOne:
  4022                           	opt stack 0
  4023  0015DE                     i49Ll3092:
  4024                           	opt stack 23
  4025                           
  4026                           ;LEDLogic.c: 10: LATBbits.LATB4 = 1;
  4027  0015DE  888A               	bsf	3978,4,c	;volatile
  4028                           
  4029                           ;LEDLogic.c: 11: __nop();
  4030  0015E0  F000               	nop	
  4031                           
  4032                           ;LEDLogic.c: 12: __nop();
  4033  0015E2  F000               	nop	
  4034                           
  4035                           ;LEDLogic.c: 13: LATBbits.LATB4 = 0;
  4036  0015E4  988A               	bcf	3978,4,c	;volatile
  4037                           
  4038                           ;LEDLogic.c: 14: __nop();
  4039  0015E6  F000               	nop	
  4040  0015E8                     i49Ll274:
  4041                           	opt stack 0
  4042  0015E8                     i50L__ptext40:
  4043                           	opt stack 0
  4044  0015E8                     i50L_LEDOne:
  4045                           	opt stack 0
  4046  0015E8                     i50Ll3092:
  4047                           	opt stack 23
  4048                           
  4049                           ;LEDLogic.c: 10: LATBbits.LATB4 = 1;
  4050  0015E8  888A               	bsf	3978,4,c	;volatile
  4051                           
  4052                           ;LEDLogic.c: 11: __nop();
  4053  0015EA  F000               	nop	
  4054                           
  4055                           ;LEDLogic.c: 12: __nop();
  4056  0015EC  F000               	nop	
  4057                           
  4058                           ;LEDLogic.c: 13: LATBbits.LATB4 = 0;
  4059  0015EE  988A               	bcf	3978,4,c	;volatile
  4060                           
  4061                           ;LEDLogic.c: 14: __nop();
  4062  0015F0  F000               	nop	
  4063  0015F2                     i50Ll274:
  4064                           	opt stack 0
  4065  0015F2                     i51L__ptext40:
  4066                           	opt stack 0
  4067  0015F2                     i51L_LEDOne:
  4068                           	opt stack 0
  4069  0015F2                     i51Ll3092:
  4070                           	opt stack 23
  4071                           
  4072                           ;LEDLogic.c: 10: LATBbits.LATB4 = 1;
  4073  0015F2  888A               	bsf	3978,4,c	;volatile
  4074                           
  4075                           ;LEDLogic.c: 11: __nop();
  4076  0015F4  F000               	nop	
  4077                           
  4078                           ;LEDLogic.c: 12: __nop();
  4079  0015F6  F000               	nop	
  4080                           
  4081                           ;LEDLogic.c: 13: LATBbits.LATB4 = 0;
  4082  0015F8  988A               	bcf	3978,4,c	;volatile
  4083                           
  4084                           ;LEDLogic.c: 14: __nop();
  4085  0015FA  F000               	nop	
  4086  0015FC                     i51Ll274:
  4087                           	opt stack 0
  4088  0015FC                     i52L__ptext40:
  4089                           	opt stack 0
  4090  0015FC                     i52L_LEDOne:
  4091                           	opt stack 0
  4092  0015FC                     i52Ll3092:
  4093                           	opt stack 23
  4094                           
  4095                           ;LEDLogic.c: 10: LATBbits.LATB4 = 1;
  4096  0015FC  888A               	bsf	3978,4,c	;volatile
  4097                           
  4098                           ;LEDLogic.c: 11: __nop();
  4099  0015FE  F000               	nop	
  4100                           
  4101                           ;LEDLogic.c: 12: __nop();
  4102  001600  F000               	nop	
  4103                           
  4104                           ;LEDLogic.c: 13: LATBbits.LATB4 = 0;
  4105  001602  988A               	bcf	3978,4,c	;volatile
  4106                           
  4107                           ;LEDLogic.c: 14: __nop();
  4108  001604  F000               	nop	
  4109  001606                     i52Ll274:
  4110                           	opt stack 0
  4111  001606                     i53L__ptext40:
  4112                           	opt stack 0
  4113  001606                     i53L_LEDOne:
  4114                           	opt stack 0
  4115  001606                     i53Ll3092:
  4116                           	opt stack 23
  4117                           
  4118                           ;LEDLogic.c: 10: LATBbits.LATB4 = 1;
  4119  001606  888A               	bsf	3978,4,c	;volatile
  4120                           
  4121                           ;LEDLogic.c: 11: __nop();
  4122  001608  F000               	nop	
  4123                           
  4124                           ;LEDLogic.c: 12: __nop();
  4125  00160A  F000               	nop	
  4126                           
  4127                           ;LEDLogic.c: 13: LATBbits.LATB4 = 0;
  4128  00160C  988A               	bcf	3978,4,c	;volatile
  4129                           
  4130                           ;LEDLogic.c: 14: __nop();
  4131  00160E  F000               	nop	
  4132  001610                     i53Ll274:
  4133                           	opt stack 0
  4134  001610                     i54L__ptext40:
  4135                           	opt stack 0
  4136  001610                     i54L_LEDOne:
  4137                           	opt stack 0
  4138  001610                     i54Ll3092:
  4139                           	opt stack 23
  4140                           
  4141                           ;LEDLogic.c: 10: LATBbits.LATB4 = 1;
  4142  001610  888A               	bsf	3978,4,c	;volatile
  4143                           
  4144                           ;LEDLogic.c: 11: __nop();
  4145  001612  F000               	nop	
  4146                           
  4147                           ;LEDLogic.c: 12: __nop();
  4148  001614  F000               	nop	
  4149                           
  4150                           ;LEDLogic.c: 13: LATBbits.LATB4 = 0;
  4151  001616  988A               	bcf	3978,4,c	;volatile
  4152                           
  4153                           ;LEDLogic.c: 14: __nop();
  4154  001618  F000               	nop	
  4155  00161A                     i54Ll274:
  4156                           	opt stack 0
  4157  00161A                     i55L__ptext40:
  4158                           	opt stack 0
  4159  00161A                     i55L_LEDOne:
  4160                           	opt stack 0
  4161  00161A                     i55Ll3092:
  4162                           	opt stack 23
  4163                           
  4164                           ;LEDLogic.c: 10: LATBbits.LATB4 = 1;
  4165  00161A  888A               	bsf	3978,4,c	;volatile
  4166                           
  4167                           ;LEDLogic.c: 11: __nop();
  4168  00161C  F000               	nop	
  4169                           
  4170                           ;LEDLogic.c: 12: __nop();
  4171  00161E  F000               	nop	
  4172                           
  4173                           ;LEDLogic.c: 13: LATBbits.LATB4 = 0;
  4174  001620  988A               	bcf	3978,4,c	;volatile
  4175                           
  4176                           ;LEDLogic.c: 14: __nop();
  4177  001622  F000               	nop	
  4178  001624                     i55Ll274:
  4179                           	opt stack 0
  4180  001624                     i56L__ptext40:
  4181                           	opt stack 0
  4182  001624                     i56L_LEDOne:
  4183                           	opt stack 0
  4184  001624                     i56Ll3092:
  4185                           	opt stack 23
  4186                           
  4187                           ;LEDLogic.c: 10: LATBbits.LATB4 = 1;
  4188  001624  888A               	bsf	3978,4,c	;volatile
  4189                           
  4190                           ;LEDLogic.c: 11: __nop();
  4191  001626  F000               	nop	
  4192                           
  4193                           ;LEDLogic.c: 12: __nop();
  4194  001628  F000               	nop	
  4195                           
  4196                           ;LEDLogic.c: 13: LATBbits.LATB4 = 0;
  4197  00162A  988A               	bcf	3978,4,c	;volatile
  4198                           
  4199                           ;LEDLogic.c: 14: __nop();
  4200  00162C  F000               	nop	
  4201  00162E                     i56Ll274:
  4202                           	opt stack 0
  4203  00162E                     i57L__ptext39:
  4204                           	opt stack 0
  4205  00162E                     i57L_LEDZero:
  4206                           	opt stack 0
  4207  00162E                     i57Ll3090:
  4208                           	opt stack 23
  4209                           
  4210                           ;LEDLogic.c: 20: LATBbits.LATB4 = 1;
  4211  00162E  888A               	bsf	3978,4,c	;volatile
  4212                           
  4213                           ;LEDLogic.c: 21: __nop();
  4214  001630  F000               	nop	
  4215                           
  4216                           ;LEDLogic.c: 22: LATBbits.LATB4 = 0;
  4217  001632  988A               	bcf	3978,4,c	;volatile
  4218                           
  4219                           ;LEDLogic.c: 23: __nop();
  4220  001634  F000               	nop	
  4221  001636                     i57Ll277:
  4222                           	opt stack 0
  4223  001636                     i58L__ptext39:
  4224                           	opt stack 0
  4225  001636                     i58L_LEDZero:
  4226                           	opt stack 0
  4227  001636                     i58Ll3090:
  4228                           	opt stack 23
  4229                           
  4230                           ;LEDLogic.c: 20: LATBbits.LATB4 = 1;
  4231  001636  888A               	bsf	3978,4,c	;volatile
  4232                           
  4233                           ;LEDLogic.c: 21: __nop();
  4234  001638  F000               	nop	
  4235                           
  4236                           ;LEDLogic.c: 22: LATBbits.LATB4 = 0;
  4237  00163A  988A               	bcf	3978,4,c	;volatile
  4238                           
  4239                           ;LEDLogic.c: 23: __nop();
  4240  00163C  F000               	nop	
  4241  00163E                     i58Ll277:
  4242                           	opt stack 0
  4243  00163E                     i59L__ptext39:
  4244                           	opt stack 0
  4245  00163E                     i59L_LEDZero:
  4246                           	opt stack 0
  4247  00163E                     i59Ll3090:
  4248                           	opt stack 23
  4249                           
  4250                           ;LEDLogic.c: 20: LATBbits.LATB4 = 1;
  4251  00163E  888A               	bsf	3978,4,c	;volatile
  4252                           
  4253                           ;LEDLogic.c: 21: __nop();
  4254  001640  F000               	nop	
  4255                           
  4256                           ;LEDLogic.c: 22: LATBbits.LATB4 = 0;
  4257  001642  988A               	bcf	3978,4,c	;volatile
  4258                           
  4259                           ;LEDLogic.c: 23: __nop();
  4260  001644  F000               	nop	
  4261  001646                     i59Ll277:
  4262                           	opt stack 0
  4263  001646                     i60L__ptext39:
  4264                           	opt stack 0
  4265  001646                     i60L_LEDZero:
  4266                           	opt stack 0
  4267  001646                     i60Ll3090:
  4268                           	opt stack 23
  4269                           
  4270                           ;LEDLogic.c: 20: LATBbits.LATB4 = 1;
  4271  001646  888A               	bsf	3978,4,c	;volatile
  4272                           
  4273                           ;LEDLogic.c: 21: __nop();
  4274  001648  F000               	nop	
  4275                           
  4276                           ;LEDLogic.c: 22: LATBbits.LATB4 = 0;
  4277  00164A  988A               	bcf	3978,4,c	;volatile
  4278                           
  4279                           ;LEDLogic.c: 23: __nop();
  4280  00164C  F000               	nop	
  4281  00164E                     i60Ll277:
  4282                           	opt stack 0
  4283  00164E                     i61L__ptext39:
  4284                           	opt stack 0
  4285  00164E                     i61L_LEDZero:
  4286                           	opt stack 0
  4287  00164E                     i61Ll3090:
  4288                           	opt stack 23
  4289                           
  4290                           ;LEDLogic.c: 20: LATBbits.LATB4 = 1;
  4291  00164E  888A               	bsf	3978,4,c	;volatile
  4292                           
  4293                           ;LEDLogic.c: 21: __nop();
  4294  001650  F000               	nop	
  4295                           
  4296                           ;LEDLogic.c: 22: LATBbits.LATB4 = 0;
  4297  001652  988A               	bcf	3978,4,c	;volatile
  4298                           
  4299                           ;LEDLogic.c: 23: __nop();
  4300  001654  F000               	nop	
  4301  001656                     i61Ll277:
  4302                           	opt stack 0
  4303  001656                     i62L__ptext39:
  4304                           	opt stack 0
  4305  001656                     i62L_LEDZero:
  4306                           	opt stack 0
  4307  001656                     i62Ll3090:
  4308                           	opt stack 23
  4309                           
  4310                           ;LEDLogic.c: 20: LATBbits.LATB4 = 1;
  4311  001656  888A               	bsf	3978,4,c	;volatile
  4312                           
  4313                           ;LEDLogic.c: 21: __nop();
  4314  001658  F000               	nop	
  4315                           
  4316                           ;LEDLogic.c: 22: LATBbits.LATB4 = 0;
  4317  00165A  988A               	bcf	3978,4,c	;volatile
  4318                           
  4319                           ;LEDLogic.c: 23: __nop();
  4320  00165C  F000               	nop	
  4321  00165E                     i62Ll277:
  4322                           	opt stack 0
  4323  00165E                     i63L__ptext39:
  4324                           	opt stack 0
  4325  00165E                     i63L_LEDZero:
  4326                           	opt stack 0
  4327  00165E                     i63Ll3090:
  4328                           	opt stack 23
  4329                           
  4330                           ;LEDLogic.c: 20: LATBbits.LATB4 = 1;
  4331  00165E  888A               	bsf	3978,4,c	;volatile
  4332                           
  4333                           ;LEDLogic.c: 21: __nop();
  4334  001660  F000               	nop	
  4335                           
  4336                           ;LEDLogic.c: 22: LATBbits.LATB4 = 0;
  4337  001662  988A               	bcf	3978,4,c	;volatile
  4338                           
  4339                           ;LEDLogic.c: 23: __nop();
  4340  001664  F000               	nop	
  4341  001666                     i63Ll277:
  4342                           	opt stack 0
  4343  001666                     i64L__ptext39:
  4344                           	opt stack 0
  4345  001666                     i64L_LEDZero:
  4346                           	opt stack 0
  4347  001666                     i64Ll3090:
  4348                           	opt stack 23
  4349                           
  4350                           ;LEDLogic.c: 20: LATBbits.LATB4 = 1;
  4351  001666  888A               	bsf	3978,4,c	;volatile
  4352                           
  4353                           ;LEDLogic.c: 21: __nop();
  4354  001668  F000               	nop	
  4355                           
  4356                           ;LEDLogic.c: 22: LATBbits.LATB4 = 0;
  4357  00166A  988A               	bcf	3978,4,c	;volatile
  4358                           
  4359                           ;LEDLogic.c: 23: __nop();
  4360  00166C  F000               	nop	
  4361  00166E                     i64Ll277:
  4362                           	opt stack 0
  4363  00166E                     i65L__ptext39:
  4364                           	opt stack 0
  4365  00166E                     i65L_LEDZero:
  4366                           	opt stack 0
  4367  00166E                     i65Ll3090:
  4368                           	opt stack 23
  4369                           
  4370                           ;LEDLogic.c: 20: LATBbits.LATB4 = 1;
  4371  00166E  888A               	bsf	3978,4,c	;volatile
  4372                           
  4373                           ;LEDLogic.c: 21: __nop();
  4374  001670  F000               	nop	
  4375                           
  4376                           ;LEDLogic.c: 22: LATBbits.LATB4 = 0;
  4377  001672  988A               	bcf	3978,4,c	;volatile
  4378                           
  4379                           ;LEDLogic.c: 23: __nop();
  4380  001674  F000               	nop	
  4381  001676                     i65Ll277:
  4382                           	opt stack 0
  4383  001676                     i66L__ptext39:
  4384                           	opt stack 0
  4385  001676                     i66L_LEDZero:
  4386                           	opt stack 0
  4387  001676                     i66Ll3090:
  4388                           	opt stack 23
  4389                           
  4390                           ;LEDLogic.c: 20: LATBbits.LATB4 = 1;
  4391  001676  888A               	bsf	3978,4,c	;volatile
  4392                           
  4393                           ;LEDLogic.c: 21: __nop();
  4394  001678  F000               	nop	
  4395                           
  4396                           ;LEDLogic.c: 22: LATBbits.LATB4 = 0;
  4397  00167A  988A               	bcf	3978,4,c	;volatile
  4398                           
  4399                           ;LEDLogic.c: 23: __nop();
  4400  00167C  F000               	nop	
  4401  00167E                     i66Ll277:
  4402                           	opt stack 0
  4403  00167E                     i67L__ptext39:
  4404                           	opt stack 0
  4405  00167E                     i67L_LEDZero:
  4406                           	opt stack 0
  4407  00167E                     i67Ll3090:
  4408                           	opt stack 23
  4409                           
  4410                           ;LEDLogic.c: 20: LATBbits.LATB4 = 1;
  4411  00167E  888A               	bsf	3978,4,c	;volatile
  4412                           
  4413                           ;LEDLogic.c: 21: __nop();
  4414  001680  F000               	nop	
  4415                           
  4416                           ;LEDLogic.c: 22: LATBbits.LATB4 = 0;
  4417  001682  988A               	bcf	3978,4,c	;volatile
  4418                           
  4419                           ;LEDLogic.c: 23: __nop();
  4420  001684  F000               	nop	
  4421  001686                     i67Ll277:
  4422                           	opt stack 0
  4423  001686                     i68L__ptext39:
  4424                           	opt stack 0
  4425  001686                     i68L_LEDZero:
  4426                           	opt stack 0
  4427  001686                     i68Ll3090:
  4428                           	opt stack 23
  4429                           
  4430                           ;LEDLogic.c: 20: LATBbits.LATB4 = 1;
  4431  001686  888A               	bsf	3978,4,c	;volatile
  4432                           
  4433                           ;LEDLogic.c: 21: __nop();
  4434  001688  F000               	nop	
  4435                           
  4436                           ;LEDLogic.c: 22: LATBbits.LATB4 = 0;
  4437  00168A  988A               	bcf	3978,4,c	;volatile
  4438                           
  4439                           ;LEDLogic.c: 23: __nop();
  4440  00168C  F000               	nop	
  4441  00168E                     i68Ll277:
  4442                           	opt stack 0
  4443  00168E                     i69L__ptext39:
  4444                           	opt stack 0
  4445  00168E                     i69L_LEDZero:
  4446                           	opt stack 0
  4447  00168E                     i69Ll3090:
  4448                           	opt stack 23
  4449                           
  4450                           ;LEDLogic.c: 20: LATBbits.LATB4 = 1;
  4451  00168E  888A               	bsf	3978,4,c	;volatile
  4452                           
  4453                           ;LEDLogic.c: 21: __nop();
  4454  001690  F000               	nop	
  4455                           
  4456                           ;LEDLogic.c: 22: LATBbits.LATB4 = 0;
  4457  001692  988A               	bcf	3978,4,c	;volatile
  4458                           
  4459                           ;LEDLogic.c: 23: __nop();
  4460  001694  F000               	nop	
  4461  001696                     i69Ll277:
  4462                           	opt stack 0
  4463  001696                     i70L__ptext39:
  4464                           	opt stack 0
  4465  001696                     i70L_LEDZero:
  4466                           	opt stack 0
  4467  001696                     i70Ll3090:
  4468                           	opt stack 23
  4469                           
  4470                           ;LEDLogic.c: 20: LATBbits.LATB4 = 1;
  4471  001696  888A               	bsf	3978,4,c	;volatile
  4472                           
  4473                           ;LEDLogic.c: 21: __nop();
  4474  001698  F000               	nop	
  4475                           
  4476                           ;LEDLogic.c: 22: LATBbits.LATB4 = 0;
  4477  00169A  988A               	bcf	3978,4,c	;volatile
  4478                           
  4479                           ;LEDLogic.c: 23: __nop();
  4480  00169C  F000               	nop	
  4481  00169E                     i70Ll277:
  4482                           	opt stack 0
  4483  00169E                     i71L__ptext39:
  4484                           	opt stack 0
  4485  00169E                     i71L_LEDZero:
  4486                           	opt stack 0
  4487  00169E                     i71Ll3090:
  4488                           	opt stack 23
  4489                           
  4490                           ;LEDLogic.c: 20: LATBbits.LATB4 = 1;
  4491  00169E  888A               	bsf	3978,4,c	;volatile
  4492                           
  4493                           ;LEDLogic.c: 21: __nop();
  4494  0016A0  F000               	nop	
  4495                           
  4496                           ;LEDLogic.c: 22: LATBbits.LATB4 = 0;
  4497  0016A2  988A               	bcf	3978,4,c	;volatile
  4498                           
  4499                           ;LEDLogic.c: 23: __nop();
  4500  0016A4  F000               	nop	
  4501  0016A6                     i71Ll277:
  4502                           	opt stack 0
  4503  0016A6                     i72L__ptext39:
  4504                           	opt stack 0
  4505  0016A6                     i72L_LEDZero:
  4506                           	opt stack 0
  4507  0016A6                     i72Ll3090:
  4508                           	opt stack 23
  4509                           
  4510                           ;LEDLogic.c: 20: LATBbits.LATB4 = 1;
  4511  0016A6  888A               	bsf	3978,4,c	;volatile
  4512                           
  4513                           ;LEDLogic.c: 21: __nop();
  4514  0016A8  F000               	nop	
  4515                           
  4516                           ;LEDLogic.c: 22: LATBbits.LATB4 = 0;
  4517  0016AA  988A               	bcf	3978,4,c	;volatile
  4518                           
  4519                           ;LEDLogic.c: 23: __nop();
  4520  0016AC  F000               	nop	
  4521  0016AE                     i72Ll277:
  4522                           	opt stack 0
  4523  0016AE  0012               	return	
  4524  0016B0                     __end_of_colorGreen:
  4525                           	opt stack 0
  4526                           intcon	equ	0xFF2
  4527                           intcon2	equ	0xFF1
  4528                           postinc0	equ	0xFEE
  4529                           wreg	equ	0xFE8
  4530                           
  4531 ;; *************** function _playElementDamage *****************
  4532 ;; Defined at:
  4533 ;;		line 356 in file "LEDLogic.c"
  4534 ;; Parameters:    Size  Location     Type
  4535 ;;		None
  4536 ;; Auto vars:     Size  Location     Type
  4537 ;;  i               1    4[BANK0 ] char 
  4538 ;;  j               1    3[BANK0 ] char 
  4539 ;; Return value:  Size  Location     Type
  4540 ;;                  1    wreg      void 
  4541 ;; Registers used:
  4542 ;;		wreg, status,2, status,0, cstack
  4543 ;; Tracked objects:
  4544 ;;		On entry : 0/0
  4545 ;;		On exit  : F/0
  4546 ;;		Unchanged: 0/0
  4547 ;; Data sizes:     COMRAM   BANK0   BANK1   BANK2   BANK3   BANK4   BANK5   BANK6   BANK7   BANK8   BANK9  BANK10  BANK1
      +1  BANK12  BANK13  BANK14  BANK15
  4548 ;;      Params:         0       0       0       0       0       0       0       0       0       0       0       0       
      +0       0       0       0       0
  4549 ;;      Locals:         0       2       0       0       0       0       0       0       0       0       0       0       
      +0       0       0       0       0
  4550 ;;      Temps:          0       0       0       0       0       0       0       0       0       0       0       0       
      +0       0       0       0       0
  4551 ;;      Totals:         0       2       0       0       0       0       0       0       0       0       0       0       
      +0       0       0       0       0
  4552 ;;Total ram usage:        2 bytes
  4553 ;; Hardware stack levels used:    1
  4554 ;; Hardware stack levels required when called:    6
  4555 ;; This function calls:
  4556 ;;		_colorBlue
  4557 ;;		_colorBlueTwo
  4558 ;;		_delay_25ms_n_times
  4559 ;; This function is called by:
  4560 ;;		_LED_play_pattern
  4561 ;; This function uses a non-reentrant model
  4562 ;;
  4563                           
  4564                           	psect	text29
  4565  001B40                     __ptext29:
  4566                           	opt stack 0
  4567  001B40                     _playElementDamage:
  4568                           	opt stack 23
  4569                           
  4570                           ;LEDLogic.c: 359: int8_t j = 0;
  4571                           
  4572                           ;incstack = 0
  4573  001B40  0100               	movlb	0	; () banked
  4574  001B42  6B78               	clrf	playElementDamage@j& (0+255),b
  4575                           
  4576                           ;LEDLogic.c: 360: int8_t i;
  4577                           ;LEDLogic.c: 362: while (j < 10) {
  4578  001B44  D02B               	goto	l3228
  4579  001B46                     l332:
  4580                           
  4581                           ; BSR set to: 0
  4582                           ;LEDLogic.c: 364: for (i = 0; i < 24; i++) {
  4583  001B46  6B79               	clrf	playElementDamage@i& (0+255),b
  4584  001B48                     l333:
  4585                           
  4586                           ; BSR set to: 0
  4587                           ;LEDLogic.c: 366: if(i % 2) {
  4588  001B48  A179               	btfss	playElementDamage@i& (0+255),0,b
  4589  001B4A  D003               	goto	l3202
  4590                           
  4591                           ; BSR set to: 0
  4592                           ;LEDLogic.c: 367: colorBlue();
  4593  001B4C  EC29  F00C         	call	_colorBlue	;wreg free
  4594                           
  4595                           ;LEDLogic.c: 368: } else {
  4596  001B50  D002               	goto	l3204
  4597  001B52                     l3202:
  4598                           
  4599                           ; BSR set to: 0
  4600                           ;LEDLogic.c: 369: colorBlueTwo();
  4601  001B52  EC7E  F00A         	call	_colorBlueTwo	;wreg free
  4602  001B56                     l3204:
  4603  001B56  0100               	movlb	0	; () banked
  4604  001B58  2B79               	incf	playElementDamage@i& (0+255),f,b
  4605                           
  4606                           ; BSR set to: 0
  4607  001B5A  5179               	movf	playElementDamage@i& (0+255),w,b
  4608  001B5C  0A80               	xorlw	128
  4609  001B5E  0F68               	addlw	-152
  4610  001B60  E3F3               	bnc	l333
  4611                           
  4612                           ; BSR set to: 0
  4613                           ;LEDLogic.c: 370: }
  4614                           ;LEDLogic.c: 371: }
  4615                           ;LEDLogic.c: 373: delay_25ms_n_times(11);
  4616  001B62  0E00               	movlw	0
  4617  001B64  6F76               	movwf	(delay_25ms_n_times@n+1)& (0+255),b
  4618  001B66  0E0B               	movlw	11
  4619  001B68  6F75               	movwf	delay_25ms_n_times@n& (0+255),b
  4620  001B6A  EC47  F00E         	call	_delay_25ms_n_times	;wreg free
  4621                           
  4622                           ;LEDLogic.c: 375: for (i = 0; i < 24; i++) {
  4623  001B6E  0100               	movlb	0	; () banked
  4624  001B70  6B79               	clrf	playElementDamage@i& (0+255),b
  4625  001B72                     l337:
  4626                           
  4627                           ; BSR set to: 0
  4628                           ;LEDLogic.c: 377: if(i % 2){
  4629  001B72  A179               	btfss	playElementDamage@i& (0+255),0,b
  4630  001B74  D003               	goto	l3218
  4631                           
  4632                           ; BSR set to: 0
  4633                           ;LEDLogic.c: 378: colorBlueTwo();
  4634  001B76  EC7E  F00A         	call	_colorBlueTwo	;wreg free
  4635                           
  4636                           ;LEDLogic.c: 379: } else {
  4637  001B7A  D002               	goto	l3220
  4638  001B7C                     l3218:
  4639                           
  4640                           ; BSR set to: 0
  4641                           ;LEDLogic.c: 380: colorBlue();
  4642  001B7C  EC29  F00C         	call	_colorBlue	;wreg free
  4643  001B80                     l3220:
  4644  001B80  0100               	movlb	0	; () banked
  4645  001B82  2B79               	incf	playElementDamage@i& (0+255),f,b
  4646                           
  4647                           ; BSR set to: 0
  4648  001B84  5179               	movf	playElementDamage@i& (0+255),w,b
  4649  001B86  0A80               	xorlw	128
  4650  001B88  0F68               	addlw	-152
  4651  001B8A  E3F3               	bnc	l337
  4652                           
  4653                           ; BSR set to: 0
  4654                           ;LEDLogic.c: 381: }
  4655                           ;LEDLogic.c: 382: }
  4656                           ;LEDLogic.c: 384: delay_25ms_n_times(11);
  4657  001B8C  0E00               	movlw	0
  4658  001B8E  6F76               	movwf	(delay_25ms_n_times@n+1)& (0+255),b
  4659  001B90  0E0B               	movlw	11
  4660  001B92  6F75               	movwf	delay_25ms_n_times@n& (0+255),b
  4661  001B94  EC47  F00E         	call	_delay_25ms_n_times	;wreg free
  4662                           
  4663                           ;LEDLogic.c: 386: j++;
  4664  001B98  0100               	movlb	0	; () banked
  4665  001B9A  2B78               	incf	playElementDamage@j& (0+255),f,b
  4666  001B9C                     l3228:
  4667                           
  4668                           ; BSR set to: 0
  4669  001B9C  5178               	movf	playElementDamage@j& (0+255),w,b
  4670  001B9E  0A80               	xorlw	128
  4671  001BA0  0F76               	addlw	-138
  4672  001BA2  E3D1               	bnc	l332
  4673                           
  4674                           ; BSR set to: 0
  4675  001BA4  0012               	return		;funcret
  4676  001BA6                     __end_of_playElementDamage:
  4677                           	opt stack 0
  4678                           intcon	equ	0xFF2
  4679                           intcon2	equ	0xFF1
  4680                           postinc0	equ	0xFEE
  4681                           wreg	equ	0xFE8
  4682                           
  4683 ;; *************** function _colorBlueTwo *****************
  4684 ;; Defined at:
  4685 ;;		line 240 in file "LEDLogic.c"
  4686 ;; Parameters:    Size  Location     Type
  4687 ;;		None
  4688 ;; Auto vars:     Size  Location     Type
  4689 ;;		None
  4690 ;; Return value:  Size  Location     Type
  4691 ;;                  1    wreg      void 
  4692 ;; Registers used:
  4693 ;;		cstack
  4694 ;; Tracked objects:
  4695 ;;		On entry : F/0
  4696 ;;		On exit  : 0/0
  4697 ;;		Unchanged: 0/0
  4698 ;; Data sizes:     COMRAM   BANK0   BANK1   BANK2   BANK3   BANK4   BANK5   BANK6   BANK7   BANK8   BANK9  BANK10  BANK1
      +1  BANK12  BANK13  BANK14  BANK15
  4699 ;;      Params:         0       0       0       0       0       0       0       0       0       0       0       0       
      +0       0       0       0       0
  4700 ;;      Locals:         0       0       0       0       0       0       0       0       0       0       0       0       
      +0       0       0       0       0
  4701 ;;      Temps:          0       0       0       0       0       0       0       0       0       0       0       0       
      +0       0       0       0       0
  4702 ;;      Totals:         0       0       0       0       0       0       0       0       0       0       0       0       
      +0       0       0       0       0
  4703 ;;Total ram usage:        0 bytes
  4704 ;; Hardware stack levels used:    1
  4705 ;; Hardware stack levels required when called:    5
  4706 ;; This function calls:
  4707 ;;		_LEDOne
  4708 ;;		_LEDZero
  4709 ;; This function is called by:
  4710 ;;		_playElementDamage
  4711 ;; This function uses a non-reentrant model
  4712 ;;
  4713                           
  4714                           	psect	text30
  4715  0014FC                     __ptext30:
  4716                           	opt stack 0
  4717  0014FC                     _colorBlueTwo:
  4718                           	opt stack 0
  4719  0014FC                     i73L__ptext40:
  4720                           	opt stack 0
  4721  0014FC                     i73L_LEDOne:
  4722                           	opt stack 0
  4723  0014FC                     i73Ll3092:
  4724                           	opt stack 23
  4725                           
  4726                           ;LEDLogic.c: 10: LATBbits.LATB4 = 1;
  4727  0014FC  888A               	bsf	3978,4,c	;volatile
  4728                           
  4729                           ;LEDLogic.c: 11: __nop();
  4730  0014FE  F000               	nop	
  4731                           
  4732                           ;LEDLogic.c: 12: __nop();
  4733  001500  F000               	nop	
  4734                           
  4735                           ;LEDLogic.c: 13: LATBbits.LATB4 = 0;
  4736  001502  988A               	bcf	3978,4,c	;volatile
  4737                           
  4738                           ;LEDLogic.c: 14: __nop();
  4739  001504  F000               	nop	
  4740  001506                     i73Ll274:
  4741                           	opt stack 0
  4742  001506                     i74L__ptext40:
  4743                           	opt stack 0
  4744  001506                     i74L_LEDOne:
  4745                           	opt stack 0
  4746  001506                     i74Ll3092:
  4747                           	opt stack 23
  4748                           
  4749                           ;LEDLogic.c: 10: LATBbits.LATB4 = 1;
  4750  001506  888A               	bsf	3978,4,c	;volatile
  4751                           
  4752                           ;LEDLogic.c: 11: __nop();
  4753  001508  F000               	nop	
  4754                           
  4755                           ;LEDLogic.c: 12: __nop();
  4756  00150A  F000               	nop	
  4757                           
  4758                           ;LEDLogic.c: 13: LATBbits.LATB4 = 0;
  4759  00150C  988A               	bcf	3978,4,c	;volatile
  4760                           
  4761                           ;LEDLogic.c: 14: __nop();
  4762  00150E  F000               	nop	
  4763  001510                     i74Ll274:
  4764                           	opt stack 0
  4765  001510                     i75L__ptext39:
  4766                           	opt stack 0
  4767  001510                     i75L_LEDZero:
  4768                           	opt stack 0
  4769  001510                     i75Ll3090:
  4770                           	opt stack 23
  4771                           
  4772                           ;LEDLogic.c: 20: LATBbits.LATB4 = 1;
  4773  001510  888A               	bsf	3978,4,c	;volatile
  4774                           
  4775                           ;LEDLogic.c: 21: __nop();
  4776  001512  F000               	nop	
  4777                           
  4778                           ;LEDLogic.c: 22: LATBbits.LATB4 = 0;
  4779  001514  988A               	bcf	3978,4,c	;volatile
  4780                           
  4781                           ;LEDLogic.c: 23: __nop();
  4782  001516  F000               	nop	
  4783  001518                     i75Ll277:
  4784                           	opt stack 0
  4785  001518                     i76L__ptext39:
  4786                           	opt stack 0
  4787  001518                     i76L_LEDZero:
  4788                           	opt stack 0
  4789  001518                     i76Ll3090:
  4790                           	opt stack 23
  4791                           
  4792                           ;LEDLogic.c: 20: LATBbits.LATB4 = 1;
  4793  001518  888A               	bsf	3978,4,c	;volatile
  4794                           
  4795                           ;LEDLogic.c: 21: __nop();
  4796  00151A  F000               	nop	
  4797                           
  4798                           ;LEDLogic.c: 22: LATBbits.LATB4 = 0;
  4799  00151C  988A               	bcf	3978,4,c	;volatile
  4800                           
  4801                           ;LEDLogic.c: 23: __nop();
  4802  00151E  F000               	nop	
  4803  001520                     i76Ll277:
  4804                           	opt stack 0
  4805  001520                     i77L__ptext40:
  4806                           	opt stack 0
  4807  001520                     i77L_LEDOne:
  4808                           	opt stack 0
  4809  001520                     i77Ll3092:
  4810                           	opt stack 23
  4811                           
  4812                           ;LEDLogic.c: 10: LATBbits.LATB4 = 1;
  4813  001520  888A               	bsf	3978,4,c	;volatile
  4814                           
  4815                           ;LEDLogic.c: 11: __nop();
  4816  001522  F000               	nop	
  4817                           
  4818                           ;LEDLogic.c: 12: __nop();
  4819  001524  F000               	nop	
  4820                           
  4821                           ;LEDLogic.c: 13: LATBbits.LATB4 = 0;
  4822  001526  988A               	bcf	3978,4,c	;volatile
  4823                           
  4824                           ;LEDLogic.c: 14: __nop();
  4825  001528  F000               	nop	
  4826  00152A                     i77Ll274:
  4827                           	opt stack 0
  4828  00152A                     i78L__ptext39:
  4829                           	opt stack 0
  4830  00152A                     i78L_LEDZero:
  4831                           	opt stack 0
  4832  00152A                     i78Ll3090:
  4833                           	opt stack 23
  4834                           
  4835                           ;LEDLogic.c: 20: LATBbits.LATB4 = 1;
  4836  00152A  888A               	bsf	3978,4,c	;volatile
  4837                           
  4838                           ;LEDLogic.c: 21: __nop();
  4839  00152C  F000               	nop	
  4840                           
  4841                           ;LEDLogic.c: 22: LATBbits.LATB4 = 0;
  4842  00152E  988A               	bcf	3978,4,c	;volatile
  4843                           
  4844                           ;LEDLogic.c: 23: __nop();
  4845  001530  F000               	nop	
  4846  001532                     i78Ll277:
  4847                           	opt stack 0
  4848  001532                     i79L__ptext39:
  4849                           	opt stack 0
  4850  001532                     i79L_LEDZero:
  4851                           	opt stack 0
  4852  001532                     i79Ll3090:
  4853                           	opt stack 23
  4854                           
  4855                           ;LEDLogic.c: 20: LATBbits.LATB4 = 1;
  4856  001532  888A               	bsf	3978,4,c	;volatile
  4857                           
  4858                           ;LEDLogic.c: 21: __nop();
  4859  001534  F000               	nop	
  4860                           
  4861                           ;LEDLogic.c: 22: LATBbits.LATB4 = 0;
  4862  001536  988A               	bcf	3978,4,c	;volatile
  4863                           
  4864                           ;LEDLogic.c: 23: __nop();
  4865  001538  F000               	nop	
  4866  00153A                     i79Ll277:
  4867                           	opt stack 0
  4868  00153A                     i80L__ptext40:
  4869                           	opt stack 0
  4870  00153A                     i80L_LEDOne:
  4871                           	opt stack 0
  4872  00153A                     i80Ll3092:
  4873                           	opt stack 23
  4874                           
  4875                           ;LEDLogic.c: 10: LATBbits.LATB4 = 1;
  4876  00153A  888A               	bsf	3978,4,c	;volatile
  4877                           
  4878                           ;LEDLogic.c: 11: __nop();
  4879  00153C  F000               	nop	
  4880                           
  4881                           ;LEDLogic.c: 12: __nop();
  4882  00153E  F000               	nop	
  4883                           
  4884                           ;LEDLogic.c: 13: LATBbits.LATB4 = 0;
  4885  001540  988A               	bcf	3978,4,c	;volatile
  4886                           
  4887                           ;LEDLogic.c: 14: __nop();
  4888  001542  F000               	nop	
  4889  001544                     i80Ll274:
  4890                           	opt stack 0
  4891  001544                     i81L__ptext39:
  4892                           	opt stack 0
  4893  001544                     i81L_LEDZero:
  4894                           	opt stack 0
  4895  001544                     i81Ll3090:
  4896                           	opt stack 23
  4897                           
  4898                           ;LEDLogic.c: 20: LATBbits.LATB4 = 1;
  4899  001544  888A               	bsf	3978,4,c	;volatile
  4900                           
  4901                           ;LEDLogic.c: 21: __nop();
  4902  001546  F000               	nop	
  4903                           
  4904                           ;LEDLogic.c: 22: LATBbits.LATB4 = 0;
  4905  001548  988A               	bcf	3978,4,c	;volatile
  4906                           
  4907                           ;LEDLogic.c: 23: __nop();
  4908  00154A  F000               	nop	
  4909  00154C                     i81Ll277:
  4910                           	opt stack 0
  4911  00154C                     i82L__ptext40:
  4912                           	opt stack 0
  4913  00154C                     i82L_LEDOne:
  4914                           	opt stack 0
  4915  00154C                     i82Ll3092:
  4916                           	opt stack 23
  4917                           
  4918                           ;LEDLogic.c: 10: LATBbits.LATB4 = 1;
  4919  00154C  888A               	bsf	3978,4,c	;volatile
  4920                           
  4921                           ;LEDLogic.c: 11: __nop();
  4922  00154E  F000               	nop	
  4923                           
  4924                           ;LEDLogic.c: 12: __nop();
  4925  001550  F000               	nop	
  4926                           
  4927                           ;LEDLogic.c: 13: LATBbits.LATB4 = 0;
  4928  001552  988A               	bcf	3978,4,c	;volatile
  4929                           
  4930                           ;LEDLogic.c: 14: __nop();
  4931  001554  F000               	nop	
  4932  001556                     i82Ll274:
  4933                           	opt stack 0
  4934  001556                     i83L__ptext40:
  4935                           	opt stack 0
  4936  001556                     i83L_LEDOne:
  4937                           	opt stack 0
  4938  001556                     i83Ll3092:
  4939                           	opt stack 23
  4940                           
  4941                           ;LEDLogic.c: 10: LATBbits.LATB4 = 1;
  4942  001556  888A               	bsf	3978,4,c	;volatile
  4943                           
  4944                           ;LEDLogic.c: 11: __nop();
  4945  001558  F000               	nop	
  4946                           
  4947                           ;LEDLogic.c: 12: __nop();
  4948  00155A  F000               	nop	
  4949                           
  4950                           ;LEDLogic.c: 13: LATBbits.LATB4 = 0;
  4951  00155C  988A               	bcf	3978,4,c	;volatile
  4952                           
  4953                           ;LEDLogic.c: 14: __nop();
  4954  00155E  F000               	nop	
  4955  001560                     i83Ll274:
  4956                           	opt stack 0
  4957  001560                     i84L__ptext39:
  4958                           	opt stack 0
  4959  001560                     i84L_LEDZero:
  4960                           	opt stack 0
  4961  001560                     i84Ll3090:
  4962                           	opt stack 23
  4963                           
  4964                           ;LEDLogic.c: 20: LATBbits.LATB4 = 1;
  4965  001560  888A               	bsf	3978,4,c	;volatile
  4966                           
  4967                           ;LEDLogic.c: 21: __nop();
  4968  001562  F000               	nop	
  4969                           
  4970                           ;LEDLogic.c: 22: LATBbits.LATB4 = 0;
  4971  001564  988A               	bcf	3978,4,c	;volatile
  4972                           
  4973                           ;LEDLogic.c: 23: __nop();
  4974  001566  F000               	nop	
  4975  001568                     i84Ll277:
  4976                           	opt stack 0
  4977  001568                     i85L__ptext39:
  4978                           	opt stack 0
  4979  001568                     i85L_LEDZero:
  4980                           	opt stack 0
  4981  001568                     i85Ll3090:
  4982                           	opt stack 23
  4983                           
  4984                           ;LEDLogic.c: 20: LATBbits.LATB4 = 1;
  4985  001568  888A               	bsf	3978,4,c	;volatile
  4986                           
  4987                           ;LEDLogic.c: 21: __nop();
  4988  00156A  F000               	nop	
  4989                           
  4990                           ;LEDLogic.c: 22: LATBbits.LATB4 = 0;
  4991  00156C  988A               	bcf	3978,4,c	;volatile
  4992                           
  4993                           ;LEDLogic.c: 23: __nop();
  4994  00156E  F000               	nop	
  4995  001570                     i85Ll277:
  4996                           	opt stack 0
  4997  001570                     i86L__ptext40:
  4998                           	opt stack 0
  4999  001570                     i86L_LEDOne:
  5000                           	opt stack 0
  5001  001570                     i86Ll3092:
  5002                           	opt stack 23
  5003                           
  5004                           ;LEDLogic.c: 10: LATBbits.LATB4 = 1;
  5005  001570  888A               	bsf	3978,4,c	;volatile
  5006                           
  5007                           ;LEDLogic.c: 11: __nop();
  5008  001572  F000               	nop	
  5009                           
  5010                           ;LEDLogic.c: 12: __nop();
  5011  001574  F000               	nop	
  5012                           
  5013                           ;LEDLogic.c: 13: LATBbits.LATB4 = 0;
  5014  001576  988A               	bcf	3978,4,c	;volatile
  5015                           
  5016                           ;LEDLogic.c: 14: __nop();
  5017  001578  F000               	nop	
  5018  00157A                     i86Ll274:
  5019                           	opt stack 0
  5020  00157A                     i87L__ptext40:
  5021                           	opt stack 0
  5022  00157A                     i87L_LEDOne:
  5023                           	opt stack 0
  5024  00157A                     i87Ll3092:
  5025                           	opt stack 23
  5026                           
  5027                           ;LEDLogic.c: 10: LATBbits.LATB4 = 1;
  5028  00157A  888A               	bsf	3978,4,c	;volatile
  5029                           
  5030                           ;LEDLogic.c: 11: __nop();
  5031  00157C  F000               	nop	
  5032                           
  5033                           ;LEDLogic.c: 12: __nop();
  5034  00157E  F000               	nop	
  5035                           
  5036                           ;LEDLogic.c: 13: LATBbits.LATB4 = 0;
  5037  001580  988A               	bcf	3978,4,c	;volatile
  5038                           
  5039                           ;LEDLogic.c: 14: __nop();
  5040  001582  F000               	nop	
  5041  001584                     i87Ll274:
  5042                           	opt stack 0
  5043  001584                     i88L__ptext39:
  5044                           	opt stack 0
  5045  001584                     i88L_LEDZero:
  5046                           	opt stack 0
  5047  001584                     i88Ll3090:
  5048                           	opt stack 23
  5049                           
  5050                           ;LEDLogic.c: 20: LATBbits.LATB4 = 1;
  5051  001584  888A               	bsf	3978,4,c	;volatile
  5052                           
  5053                           ;LEDLogic.c: 21: __nop();
  5054  001586  F000               	nop	
  5055                           
  5056                           ;LEDLogic.c: 22: LATBbits.LATB4 = 0;
  5057  001588  988A               	bcf	3978,4,c	;volatile
  5058                           
  5059                           ;LEDLogic.c: 23: __nop();
  5060  00158A  F000               	nop	
  5061  00158C                     i88Ll277:
  5062                           	opt stack 0
  5063  00158C                     i89L__ptext40:
  5064                           	opt stack 0
  5065  00158C                     i89L_LEDOne:
  5066                           	opt stack 0
  5067  00158C                     i89Ll3092:
  5068                           	opt stack 23
  5069                           
  5070                           ;LEDLogic.c: 10: LATBbits.LATB4 = 1;
  5071  00158C  888A               	bsf	3978,4,c	;volatile
  5072                           
  5073                           ;LEDLogic.c: 11: __nop();
  5074  00158E  F000               	nop	
  5075                           
  5076                           ;LEDLogic.c: 12: __nop();
  5077  001590  F000               	nop	
  5078                           
  5079                           ;LEDLogic.c: 13: LATBbits.LATB4 = 0;
  5080  001592  988A               	bcf	3978,4,c	;volatile
  5081                           
  5082                           ;LEDLogic.c: 14: __nop();
  5083  001594  F000               	nop	
  5084  001596                     i89Ll274:
  5085                           	opt stack 0
  5086  001596                     i90L__ptext40:
  5087                           	opt stack 0
  5088  001596                     i90L_LEDOne:
  5089                           	opt stack 0
  5090  001596                     i90Ll3092:
  5091                           	opt stack 23
  5092                           
  5093                           ;LEDLogic.c: 10: LATBbits.LATB4 = 1;
  5094  001596  888A               	bsf	3978,4,c	;volatile
  5095                           
  5096                           ;LEDLogic.c: 11: __nop();
  5097  001598  F000               	nop	
  5098                           
  5099                           ;LEDLogic.c: 12: __nop();
  5100  00159A  F000               	nop	
  5101                           
  5102                           ;LEDLogic.c: 13: LATBbits.LATB4 = 0;
  5103  00159C  988A               	bcf	3978,4,c	;volatile
  5104                           
  5105                           ;LEDLogic.c: 14: __nop();
  5106  00159E  F000               	nop	
  5107  0015A0                     i90Ll274:
  5108                           	opt stack 0
  5109  0015A0                     i91L__ptext40:
  5110                           	opt stack 0
  5111  0015A0                     i91L_LEDOne:
  5112                           	opt stack 0
  5113  0015A0                     i91Ll3092:
  5114                           	opt stack 23
  5115                           
  5116                           ;LEDLogic.c: 10: LATBbits.LATB4 = 1;
  5117  0015A0  888A               	bsf	3978,4,c	;volatile
  5118                           
  5119                           ;LEDLogic.c: 11: __nop();
  5120  0015A2  F000               	nop	
  5121                           
  5122                           ;LEDLogic.c: 12: __nop();
  5123  0015A4  F000               	nop	
  5124                           
  5125                           ;LEDLogic.c: 13: LATBbits.LATB4 = 0;
  5126  0015A6  988A               	bcf	3978,4,c	;volatile
  5127                           
  5128                           ;LEDLogic.c: 14: __nop();
  5129  0015A8  F000               	nop	
  5130  0015AA                     i91Ll274:
  5131                           	opt stack 0
  5132  0015AA                     i92L__ptext40:
  5133                           	opt stack 0
  5134  0015AA                     i92L_LEDOne:
  5135                           	opt stack 0
  5136  0015AA                     i92Ll3092:
  5137                           	opt stack 23
  5138                           
  5139                           ;LEDLogic.c: 10: LATBbits.LATB4 = 1;
  5140  0015AA  888A               	bsf	3978,4,c	;volatile
  5141                           
  5142                           ;LEDLogic.c: 11: __nop();
  5143  0015AC  F000               	nop	
  5144                           
  5145                           ;LEDLogic.c: 12: __nop();
  5146  0015AE  F000               	nop	
  5147                           
  5148                           ;LEDLogic.c: 13: LATBbits.LATB4 = 0;
  5149  0015B0  988A               	bcf	3978,4,c	;volatile
  5150                           
  5151                           ;LEDLogic.c: 14: __nop();
  5152  0015B2  F000               	nop	
  5153  0015B4                     i92Ll274:
  5154                           	opt stack 0
  5155  0015B4                     i93L__ptext40:
  5156                           	opt stack 0
  5157  0015B4                     i93L_LEDOne:
  5158                           	opt stack 0
  5159  0015B4                     i93Ll3092:
  5160                           	opt stack 23
  5161                           
  5162                           ;LEDLogic.c: 10: LATBbits.LATB4 = 1;
  5163  0015B4  888A               	bsf	3978,4,c	;volatile
  5164                           
  5165                           ;LEDLogic.c: 11: __nop();
  5166  0015B6  F000               	nop	
  5167                           
  5168                           ;LEDLogic.c: 12: __nop();
  5169  0015B8  F000               	nop	
  5170                           
  5171                           ;LEDLogic.c: 13: LATBbits.LATB4 = 0;
  5172  0015BA  988A               	bcf	3978,4,c	;volatile
  5173                           
  5174                           ;LEDLogic.c: 14: __nop();
  5175  0015BC  F000               	nop	
  5176  0015BE                     i93Ll274:
  5177                           	opt stack 0
  5178  0015BE                     i94L__ptext40:
  5179                           	opt stack 0
  5180  0015BE                     i94L_LEDOne:
  5181                           	opt stack 0
  5182  0015BE                     i94Ll3092:
  5183                           	opt stack 23
  5184                           
  5185                           ;LEDLogic.c: 10: LATBbits.LATB4 = 1;
  5186  0015BE  888A               	bsf	3978,4,c	;volatile
  5187                           
  5188                           ;LEDLogic.c: 11: __nop();
  5189  0015C0  F000               	nop	
  5190                           
  5191                           ;LEDLogic.c: 12: __nop();
  5192  0015C2  F000               	nop	
  5193                           
  5194                           ;LEDLogic.c: 13: LATBbits.LATB4 = 0;
  5195  0015C4  988A               	bcf	3978,4,c	;volatile
  5196                           
  5197                           ;LEDLogic.c: 14: __nop();
  5198  0015C6  F000               	nop	
  5199  0015C8                     i94Ll274:
  5200                           	opt stack 0
  5201  0015C8                     i95L__ptext40:
  5202                           	opt stack 0
  5203  0015C8                     i95L_LEDOne:
  5204                           	opt stack 0
  5205  0015C8                     i95Ll3092:
  5206                           	opt stack 23
  5207                           
  5208                           ;LEDLogic.c: 10: LATBbits.LATB4 = 1;
  5209  0015C8  888A               	bsf	3978,4,c	;volatile
  5210                           
  5211                           ;LEDLogic.c: 11: __nop();
  5212  0015CA  F000               	nop	
  5213                           
  5214                           ;LEDLogic.c: 12: __nop();
  5215  0015CC  F000               	nop	
  5216                           
  5217                           ;LEDLogic.c: 13: LATBbits.LATB4 = 0;
  5218  0015CE  988A               	bcf	3978,4,c	;volatile
  5219                           
  5220                           ;LEDLogic.c: 14: __nop();
  5221  0015D0  F000               	nop	
  5222  0015D2                     i95Ll274:
  5223                           	opt stack 0
  5224  0015D2                     i96L__ptext40:
  5225                           	opt stack 0
  5226  0015D2                     i96L_LEDOne:
  5227                           	opt stack 0
  5228  0015D2                     i96Ll3092:
  5229                           	opt stack 23
  5230                           
  5231                           ;LEDLogic.c: 10: LATBbits.LATB4 = 1;
  5232  0015D2  888A               	bsf	3978,4,c	;volatile
  5233                           
  5234                           ;LEDLogic.c: 11: __nop();
  5235  0015D4  F000               	nop	
  5236                           
  5237                           ;LEDLogic.c: 12: __nop();
  5238  0015D6  F000               	nop	
  5239                           
  5240                           ;LEDLogic.c: 13: LATBbits.LATB4 = 0;
  5241  0015D8  988A               	bcf	3978,4,c	;volatile
  5242                           
  5243                           ;LEDLogic.c: 14: __nop();
  5244  0015DA  F000               	nop	
  5245  0015DC                     i96Ll274:
  5246                           	opt stack 0
  5247  0015DC  0012               	return	
  5248  0015DE                     __end_of_colorBlueTwo:
  5249                           	opt stack 0
  5250                           intcon	equ	0xFF2
  5251                           intcon2	equ	0xFF1
  5252                           postinc0	equ	0xFEE
  5253                           wreg	equ	0xFE8
  5254                           
  5255 ;; *************** function _colorBlue *****************
  5256 ;; Defined at:
  5257 ;;		line 208 in file "LEDLogic.c"
  5258 ;; Parameters:    Size  Location     Type
  5259 ;;		None
  5260 ;; Auto vars:     Size  Location     Type
  5261 ;;		None
  5262 ;; Return value:  Size  Location     Type
  5263 ;;                  1    wreg      void 
  5264 ;; Registers used:
  5265 ;;		cstack
  5266 ;; Tracked objects:
  5267 ;;		On entry : F/0
  5268 ;;		On exit  : 0/0
  5269 ;;		Unchanged: 0/0
  5270 ;; Data sizes:     COMRAM   BANK0   BANK1   BANK2   BANK3   BANK4   BANK5   BANK6   BANK7   BANK8   BANK9  BANK10  BANK1
      +1  BANK12  BANK13  BANK14  BANK15
  5271 ;;      Params:         0       0       0       0       0       0       0       0       0       0       0       0       
      +0       0       0       0       0
  5272 ;;      Locals:         0       0       0       0       0       0       0       0       0       0       0       0       
      +0       0       0       0       0
  5273 ;;      Temps:          0       0       0       0       0       0       0       0       0       0       0       0       
      +0       0       0       0       0
  5274 ;;      Totals:         0       0       0       0       0       0       0       0       0       0       0       0       
      +0       0       0       0       0
  5275 ;;Total ram usage:        0 bytes
  5276 ;; Hardware stack levels used:    1
  5277 ;; Hardware stack levels required when called:    5
  5278 ;; This function calls:
  5279 ;;		_LEDOne
  5280 ;;		_LEDZero
  5281 ;; This function is called by:
  5282 ;;		_playElementDamage
  5283 ;;		_playTestPassed
  5284 ;; This function uses a non-reentrant model
  5285 ;;
  5286                           
  5287                           	psect	text31
  5288  001852                     __ptext31:
  5289                           	opt stack 0
  5290  001852                     _colorBlue:
  5291                           	opt stack 0
  5292  001852                     i97L__ptext39:
  5293                           	opt stack 0
  5294  001852                     i97L_LEDZero:
  5295                           	opt stack 0
  5296  001852                     i97Ll3090:
  5297                           	opt stack 23
  5298                           
  5299                           ;LEDLogic.c: 20: LATBbits.LATB4 = 1;
  5300  001852  888A               	bsf	3978,4,c	;volatile
  5301                           
  5302                           ;LEDLogic.c: 21: __nop();
  5303  001854  F000               	nop	
  5304                           
  5305                           ;LEDLogic.c: 22: LATBbits.LATB4 = 0;
  5306  001856  988A               	bcf	3978,4,c	;volatile
  5307                           
  5308                           ;LEDLogic.c: 23: __nop();
  5309  001858  F000               	nop	
  5310  00185A                     i97Ll277:
  5311                           	opt stack 0
  5312  00185A                     i98L__ptext39:
  5313                           	opt stack 0
  5314  00185A                     i98L_LEDZero:
  5315                           	opt stack 0
  5316  00185A                     i98Ll3090:
  5317                           	opt stack 23
  5318                           
  5319                           ;LEDLogic.c: 20: LATBbits.LATB4 = 1;
  5320  00185A  888A               	bsf	3978,4,c	;volatile
  5321                           
  5322                           ;LEDLogic.c: 21: __nop();
  5323  00185C  F000               	nop	
  5324                           
  5325                           ;LEDLogic.c: 22: LATBbits.LATB4 = 0;
  5326  00185E  988A               	bcf	3978,4,c	;volatile
  5327                           
  5328                           ;LEDLogic.c: 23: __nop();
  5329  001860  F000               	nop	
  5330  001862                     i98Ll277:
  5331                           	opt stack 0
  5332  001862                     i99L__ptext39:
  5333                           	opt stack 0
  5334  001862                     i99L_LEDZero:
  5335                           	opt stack 0
  5336  001862                     i99Ll3090:
  5337                           	opt stack 23
  5338                           
  5339                           ;LEDLogic.c: 20: LATBbits.LATB4 = 1;
  5340  001862  888A               	bsf	3978,4,c	;volatile
  5341                           
  5342                           ;LEDLogic.c: 21: __nop();
  5343  001864  F000               	nop	
  5344                           
  5345                           ;LEDLogic.c: 22: LATBbits.LATB4 = 0;
  5346  001866  988A               	bcf	3978,4,c	;volatile
  5347                           
  5348                           ;LEDLogic.c: 23: __nop();
  5349  001868  F000               	nop	
  5350  00186A                     i99Ll277:
  5351                           	opt stack 0
  5352  00186A                     i100L__ptext39:
  5353                           	opt stack 0
  5354  00186A                     i100L_LEDZero:
  5355                           	opt stack 0
  5356  00186A                     i100Ll3090:
  5357                           	opt stack 23
  5358                           
  5359                           ;LEDLogic.c: 20: LATBbits.LATB4 = 1;
  5360  00186A  888A               	bsf	3978,4,c	;volatile
  5361                           
  5362                           ;LEDLogic.c: 21: __nop();
  5363  00186C  F000               	nop	
  5364                           
  5365                           ;LEDLogic.c: 22: LATBbits.LATB4 = 0;
  5366  00186E  988A               	bcf	3978,4,c	;volatile
  5367                           
  5368                           ;LEDLogic.c: 23: __nop();
  5369  001870  F000               	nop	
  5370  001872                     i100Ll277:
  5371                           	opt stack 0
  5372  001872                     i101L__ptext39:
  5373                           	opt stack 0
  5374  001872                     i101L_LEDZero:
  5375                           	opt stack 0
  5376  001872                     i101Ll3090:
  5377                           	opt stack 23
  5378                           
  5379                           ;LEDLogic.c: 20: LATBbits.LATB4 = 1;
  5380  001872  888A               	bsf	3978,4,c	;volatile
  5381                           
  5382                           ;LEDLogic.c: 21: __nop();
  5383  001874  F000               	nop	
  5384                           
  5385                           ;LEDLogic.c: 22: LATBbits.LATB4 = 0;
  5386  001876  988A               	bcf	3978,4,c	;volatile
  5387                           
  5388                           ;LEDLogic.c: 23: __nop();
  5389  001878  F000               	nop	
  5390  00187A                     i101Ll277:
  5391                           	opt stack 0
  5392  00187A                     i102L__ptext39:
  5393                           	opt stack 0
  5394  00187A                     i102L_LEDZero:
  5395                           	opt stack 0
  5396  00187A                     i102Ll3090:
  5397                           	opt stack 23
  5398                           
  5399                           ;LEDLogic.c: 20: LATBbits.LATB4 = 1;
  5400  00187A  888A               	bsf	3978,4,c	;volatile
  5401                           
  5402                           ;LEDLogic.c: 21: __nop();
  5403  00187C  F000               	nop	
  5404                           
  5405                           ;LEDLogic.c: 22: LATBbits.LATB4 = 0;
  5406  00187E  988A               	bcf	3978,4,c	;volatile
  5407                           
  5408                           ;LEDLogic.c: 23: __nop();
  5409  001880  F000               	nop	
  5410  001882                     i102Ll277:
  5411                           	opt stack 0
  5412  001882                     i103L__ptext39:
  5413                           	opt stack 0
  5414  001882                     i103L_LEDZero:
  5415                           	opt stack 0
  5416  001882                     i103Ll3090:
  5417                           	opt stack 23
  5418                           
  5419                           ;LEDLogic.c: 20: LATBbits.LATB4 = 1;
  5420  001882  888A               	bsf	3978,4,c	;volatile
  5421                           
  5422                           ;LEDLogic.c: 21: __nop();
  5423  001884  F000               	nop	
  5424                           
  5425                           ;LEDLogic.c: 22: LATBbits.LATB4 = 0;
  5426  001886  988A               	bcf	3978,4,c	;volatile
  5427                           
  5428                           ;LEDLogic.c: 23: __nop();
  5429  001888  F000               	nop	
  5430  00188A                     i103Ll277:
  5431                           	opt stack 0
  5432  00188A                     i104L__ptext39:
  5433                           	opt stack 0
  5434  00188A                     i104L_LEDZero:
  5435                           	opt stack 0
  5436  00188A                     i104Ll3090:
  5437                           	opt stack 23
  5438                           
  5439                           ;LEDLogic.c: 20: LATBbits.LATB4 = 1;
  5440  00188A  888A               	bsf	3978,4,c	;volatile
  5441                           
  5442                           ;LEDLogic.c: 21: __nop();
  5443  00188C  F000               	nop	
  5444                           
  5445                           ;LEDLogic.c: 22: LATBbits.LATB4 = 0;
  5446  00188E  988A               	bcf	3978,4,c	;volatile
  5447                           
  5448                           ;LEDLogic.c: 23: __nop();
  5449  001890  F000               	nop	
  5450  001892                     i104Ll277:
  5451                           	opt stack 0
  5452  001892                     i105L__ptext39:
  5453                           	opt stack 0
  5454  001892                     i105L_LEDZero:
  5455                           	opt stack 0
  5456  001892                     i105Ll3090:
  5457                           	opt stack 23
  5458                           
  5459                           ;LEDLogic.c: 20: LATBbits.LATB4 = 1;
  5460  001892  888A               	bsf	3978,4,c	;volatile
  5461                           
  5462                           ;LEDLogic.c: 21: __nop();
  5463  001894  F000               	nop	
  5464                           
  5465                           ;LEDLogic.c: 22: LATBbits.LATB4 = 0;
  5466  001896  988A               	bcf	3978,4,c	;volatile
  5467                           
  5468                           ;LEDLogic.c: 23: __nop();
  5469  001898  F000               	nop	
  5470  00189A                     i105Ll277:
  5471                           	opt stack 0
  5472  00189A                     i106L__ptext39:
  5473                           	opt stack 0
  5474  00189A                     i106L_LEDZero:
  5475                           	opt stack 0
  5476  00189A                     i106Ll3090:
  5477                           	opt stack 23
  5478                           
  5479                           ;LEDLogic.c: 20: LATBbits.LATB4 = 1;
  5480  00189A  888A               	bsf	3978,4,c	;volatile
  5481                           
  5482                           ;LEDLogic.c: 21: __nop();
  5483  00189C  F000               	nop	
  5484                           
  5485                           ;LEDLogic.c: 22: LATBbits.LATB4 = 0;
  5486  00189E  988A               	bcf	3978,4,c	;volatile
  5487                           
  5488                           ;LEDLogic.c: 23: __nop();
  5489  0018A0  F000               	nop	
  5490  0018A2                     i106Ll277:
  5491                           	opt stack 0
  5492  0018A2                     i107L__ptext39:
  5493                           	opt stack 0
  5494  0018A2                     i107L_LEDZero:
  5495                           	opt stack 0
  5496  0018A2                     i107Ll3090:
  5497                           	opt stack 23
  5498                           
  5499                           ;LEDLogic.c: 20: LATBbits.LATB4 = 1;
  5500  0018A2  888A               	bsf	3978,4,c	;volatile
  5501                           
  5502                           ;LEDLogic.c: 21: __nop();
  5503  0018A4  F000               	nop	
  5504                           
  5505                           ;LEDLogic.c: 22: LATBbits.LATB4 = 0;
  5506  0018A6  988A               	bcf	3978,4,c	;volatile
  5507                           
  5508                           ;LEDLogic.c: 23: __nop();
  5509  0018A8  F000               	nop	
  5510  0018AA                     i107Ll277:
  5511                           	opt stack 0
  5512  0018AA                     i108L__ptext39:
  5513                           	opt stack 0
  5514  0018AA                     i108L_LEDZero:
  5515                           	opt stack 0
  5516  0018AA                     i108Ll3090:
  5517                           	opt stack 23
  5518                           
  5519                           ;LEDLogic.c: 20: LATBbits.LATB4 = 1;
  5520  0018AA  888A               	bsf	3978,4,c	;volatile
  5521                           
  5522                           ;LEDLogic.c: 21: __nop();
  5523  0018AC  F000               	nop	
  5524                           
  5525                           ;LEDLogic.c: 22: LATBbits.LATB4 = 0;
  5526  0018AE  988A               	bcf	3978,4,c	;volatile
  5527                           
  5528                           ;LEDLogic.c: 23: __nop();
  5529  0018B0  F000               	nop	
  5530  0018B2                     i108Ll277:
  5531                           	opt stack 0
  5532  0018B2                     i109L__ptext39:
  5533                           	opt stack 0
  5534  0018B2                     i109L_LEDZero:
  5535                           	opt stack 0
  5536  0018B2                     i109Ll3090:
  5537                           	opt stack 23
  5538                           
  5539                           ;LEDLogic.c: 20: LATBbits.LATB4 = 1;
  5540  0018B2  888A               	bsf	3978,4,c	;volatile
  5541                           
  5542                           ;LEDLogic.c: 21: __nop();
  5543  0018B4  F000               	nop	
  5544                           
  5545                           ;LEDLogic.c: 22: LATBbits.LATB4 = 0;
  5546  0018B6  988A               	bcf	3978,4,c	;volatile
  5547                           
  5548                           ;LEDLogic.c: 23: __nop();
  5549  0018B8  F000               	nop	
  5550  0018BA                     i109Ll277:
  5551                           	opt stack 0
  5552  0018BA                     i110L__ptext39:
  5553                           	opt stack 0
  5554  0018BA                     i110L_LEDZero:
  5555                           	opt stack 0
  5556  0018BA                     i110Ll3090:
  5557                           	opt stack 23
  5558                           
  5559                           ;LEDLogic.c: 20: LATBbits.LATB4 = 1;
  5560  0018BA  888A               	bsf	3978,4,c	;volatile
  5561                           
  5562                           ;LEDLogic.c: 21: __nop();
  5563  0018BC  F000               	nop	
  5564                           
  5565                           ;LEDLogic.c: 22: LATBbits.LATB4 = 0;
  5566  0018BE  988A               	bcf	3978,4,c	;volatile
  5567                           
  5568                           ;LEDLogic.c: 23: __nop();
  5569  0018C0  F000               	nop	
  5570  0018C2                     i110Ll277:
  5571                           	opt stack 0
  5572  0018C2                     i111L__ptext39:
  5573                           	opt stack 0
  5574  0018C2                     i111L_LEDZero:
  5575                           	opt stack 0
  5576  0018C2                     i111Ll3090:
  5577                           	opt stack 23
  5578                           
  5579                           ;LEDLogic.c: 20: LATBbits.LATB4 = 1;
  5580  0018C2  888A               	bsf	3978,4,c	;volatile
  5581                           
  5582                           ;LEDLogic.c: 21: __nop();
  5583  0018C4  F000               	nop	
  5584                           
  5585                           ;LEDLogic.c: 22: LATBbits.LATB4 = 0;
  5586  0018C6  988A               	bcf	3978,4,c	;volatile
  5587                           
  5588                           ;LEDLogic.c: 23: __nop();
  5589  0018C8  F000               	nop	
  5590  0018CA                     i111Ll277:
  5591                           	opt stack 0
  5592  0018CA                     i112L__ptext39:
  5593                           	opt stack 0
  5594  0018CA                     i112L_LEDZero:
  5595                           	opt stack 0
  5596  0018CA                     i112Ll3090:
  5597                           	opt stack 23
  5598                           
  5599                           ;LEDLogic.c: 20: LATBbits.LATB4 = 1;
  5600  0018CA  888A               	bsf	3978,4,c	;volatile
  5601                           
  5602                           ;LEDLogic.c: 21: __nop();
  5603  0018CC  F000               	nop	
  5604                           
  5605                           ;LEDLogic.c: 22: LATBbits.LATB4 = 0;
  5606  0018CE  988A               	bcf	3978,4,c	;volatile
  5607                           
  5608                           ;LEDLogic.c: 23: __nop();
  5609  0018D0  F000               	nop	
  5610  0018D2                     i112Ll277:
  5611                           	opt stack 0
  5612  0018D2                     i113L__ptext39:
  5613                           	opt stack 0
  5614  0018D2                     i113L_LEDZero:
  5615                           	opt stack 0
  5616  0018D2                     i113Ll3090:
  5617                           	opt stack 23
  5618                           
  5619                           ;LEDLogic.c: 20: LATBbits.LATB4 = 1;
  5620  0018D2  888A               	bsf	3978,4,c	;volatile
  5621                           
  5622                           ;LEDLogic.c: 21: __nop();
  5623  0018D4  F000               	nop	
  5624                           
  5625                           ;LEDLogic.c: 22: LATBbits.LATB4 = 0;
  5626  0018D6  988A               	bcf	3978,4,c	;volatile
  5627                           
  5628                           ;LEDLogic.c: 23: __nop();
  5629  0018D8  F000               	nop	
  5630  0018DA                     i113Ll277:
  5631                           	opt stack 0
  5632  0018DA                     i114L__ptext39:
  5633                           	opt stack 0
  5634  0018DA                     i114L_LEDZero:
  5635                           	opt stack 0
  5636  0018DA                     i114Ll3090:
  5637                           	opt stack 23
  5638                           
  5639                           ;LEDLogic.c: 20: LATBbits.LATB4 = 1;
  5640  0018DA  888A               	bsf	3978,4,c	;volatile
  5641                           
  5642                           ;LEDLogic.c: 21: __nop();
  5643  0018DC  F000               	nop	
  5644                           
  5645                           ;LEDLogic.c: 22: LATBbits.LATB4 = 0;
  5646  0018DE  988A               	bcf	3978,4,c	;volatile
  5647                           
  5648                           ;LEDLogic.c: 23: __nop();
  5649  0018E0  F000               	nop	
  5650  0018E2                     i114Ll277:
  5651                           	opt stack 0
  5652  0018E2                     i115L__ptext40:
  5653                           	opt stack 0
  5654  0018E2                     i115L_LEDOne:
  5655                           	opt stack 0
  5656  0018E2                     i115Ll3092:
  5657                           	opt stack 23
  5658                           
  5659                           ;LEDLogic.c: 10: LATBbits.LATB4 = 1;
  5660  0018E2  888A               	bsf	3978,4,c	;volatile
  5661                           
  5662                           ;LEDLogic.c: 11: __nop();
  5663  0018E4  F000               	nop	
  5664                           
  5665                           ;LEDLogic.c: 12: __nop();
  5666  0018E6  F000               	nop	
  5667                           
  5668                           ;LEDLogic.c: 13: LATBbits.LATB4 = 0;
  5669  0018E8  988A               	bcf	3978,4,c	;volatile
  5670                           
  5671                           ;LEDLogic.c: 14: __nop();
  5672  0018EA  F000               	nop	
  5673  0018EC                     i115Ll274:
  5674                           	opt stack 0
  5675  0018EC                     i116L__ptext39:
  5676                           	opt stack 0
  5677  0018EC                     i116L_LEDZero:
  5678                           	opt stack 0
  5679  0018EC                     i116Ll3090:
  5680                           	opt stack 23
  5681                           
  5682                           ;LEDLogic.c: 20: LATBbits.LATB4 = 1;
  5683  0018EC  888A               	bsf	3978,4,c	;volatile
  5684                           
  5685                           ;LEDLogic.c: 21: __nop();
  5686  0018EE  F000               	nop	
  5687                           
  5688                           ;LEDLogic.c: 22: LATBbits.LATB4 = 0;
  5689  0018F0  988A               	bcf	3978,4,c	;volatile
  5690                           
  5691                           ;LEDLogic.c: 23: __nop();
  5692  0018F2  F000               	nop	
  5693  0018F4                     i116Ll277:
  5694                           	opt stack 0
  5695  0018F4                     i117L__ptext39:
  5696                           	opt stack 0
  5697  0018F4                     i117L_LEDZero:
  5698                           	opt stack 0
  5699  0018F4                     i117Ll3090:
  5700                           	opt stack 23
  5701                           
  5702                           ;LEDLogic.c: 20: LATBbits.LATB4 = 1;
  5703  0018F4  888A               	bsf	3978,4,c	;volatile
  5704                           
  5705                           ;LEDLogic.c: 21: __nop();
  5706  0018F6  F000               	nop	
  5707                           
  5708                           ;LEDLogic.c: 22: LATBbits.LATB4 = 0;
  5709  0018F8  988A               	bcf	3978,4,c	;volatile
  5710                           
  5711                           ;LEDLogic.c: 23: __nop();
  5712  0018FA  F000               	nop	
  5713  0018FC                     i117Ll277:
  5714                           	opt stack 0
  5715  0018FC                     i118L__ptext39:
  5716                           	opt stack 0
  5717  0018FC                     i118L_LEDZero:
  5718                           	opt stack 0
  5719  0018FC                     i118Ll3090:
  5720                           	opt stack 23
  5721                           
  5722                           ;LEDLogic.c: 20: LATBbits.LATB4 = 1;
  5723  0018FC  888A               	bsf	3978,4,c	;volatile
  5724                           
  5725                           ;LEDLogic.c: 21: __nop();
  5726  0018FE  F000               	nop	
  5727                           
  5728                           ;LEDLogic.c: 22: LATBbits.LATB4 = 0;
  5729  001900  988A               	bcf	3978,4,c	;volatile
  5730                           
  5731                           ;LEDLogic.c: 23: __nop();
  5732  001902  F000               	nop	
  5733  001904                     i118Ll277:
  5734                           	opt stack 0
  5735  001904                     i119L__ptext39:
  5736                           	opt stack 0
  5737  001904                     i119L_LEDZero:
  5738                           	opt stack 0
  5739  001904                     i119Ll3090:
  5740                           	opt stack 23
  5741                           
  5742                           ;LEDLogic.c: 20: LATBbits.LATB4 = 1;
  5743  001904  888A               	bsf	3978,4,c	;volatile
  5744                           
  5745                           ;LEDLogic.c: 21: __nop();
  5746  001906  F000               	nop	
  5747                           
  5748                           ;LEDLogic.c: 22: LATBbits.LATB4 = 0;
  5749  001908  988A               	bcf	3978,4,c	;volatile
  5750                           
  5751                           ;LEDLogic.c: 23: __nop();
  5752  00190A  F000               	nop	
  5753  00190C                     i119Ll277:
  5754                           	opt stack 0
  5755  00190C                     i120L__ptext40:
  5756                           	opt stack 0
  5757  00190C                     i120L_LEDOne:
  5758                           	opt stack 0
  5759  00190C                     i120Ll3092:
  5760                           	opt stack 23
  5761                           
  5762                           ;LEDLogic.c: 10: LATBbits.LATB4 = 1;
  5763  00190C  888A               	bsf	3978,4,c	;volatile
  5764                           
  5765                           ;LEDLogic.c: 11: __nop();
  5766  00190E  F000               	nop	
  5767                           
  5768                           ;LEDLogic.c: 12: __nop();
  5769  001910  F000               	nop	
  5770                           
  5771                           ;LEDLogic.c: 13: LATBbits.LATB4 = 0;
  5772  001912  988A               	bcf	3978,4,c	;volatile
  5773                           
  5774                           ;LEDLogic.c: 14: __nop();
  5775  001914  F000               	nop	
  5776  001916                     i120Ll274:
  5777                           	opt stack 0
  5778  001916  0012               	return	
  5779  001918                     __end_of_colorBlue:
  5780                           	opt stack 0
  5781                           intcon	equ	0xFF2
  5782                           intcon2	equ	0xFF1
  5783                           postinc0	equ	0xFEE
  5784                           wreg	equ	0xFE8
  5785                           
  5786 ;; *************** function _playDamage *****************
  5787 ;; Defined at:
  5788 ;;		line 309 in file "LEDLogic.c"
  5789 ;; Parameters:    Size  Location     Type
  5790 ;;		None
  5791 ;; Auto vars:     Size  Location     Type
  5792 ;;  i               1    3[BANK0 ] unsigned char 
  5793 ;; Return value:  Size  Location     Type
  5794 ;;                  1    wreg      void 
  5795 ;; Registers used:
  5796 ;;		wreg, status,2, status,0, cstack
  5797 ;; Tracked objects:
  5798 ;;		On entry : 0/0
  5799 ;;		On exit  : 0/0
  5800 ;;		Unchanged: 0/0
  5801 ;; Data sizes:     COMRAM   BANK0   BANK1   BANK2   BANK3   BANK4   BANK5   BANK6   BANK7   BANK8   BANK9  BANK10  BANK1
      +1  BANK12  BANK13  BANK14  BANK15
  5802 ;;      Params:         0       0       0       0       0       0       0       0       0       0       0       0       
      +0       0       0       0       0
  5803 ;;      Locals:         0       1       0       0       0       0       0       0       0       0       0       0       
      +0       0       0       0       0
  5804 ;;      Temps:          0       0       0       0       0       0       0       0       0       0       0       0       
      +0       0       0       0       0
  5805 ;;      Totals:         0       1       0       0       0       0       0       0       0       0       0       0       
      +0       0       0       0       0
  5806 ;;Total ram usage:        1 bytes
  5807 ;; Hardware stack levels used:    1
  5808 ;; Hardware stack levels required when called:    7
  5809 ;; This function calls:
  5810 ;;		_clearPattern
  5811 ;;		_colorRed
  5812 ;;		_delay_25ms_n_times
  5813 ;; This function is called by:
  5814 ;;		_LED_play_pattern
  5815 ;; This function uses a non-reentrant model
  5816 ;;
  5817                           
  5818                           	psect	text32
  5819  001CC0                     __ptext32:
  5820                           	opt stack 0
  5821  001CC0                     _playDamage:
  5822                           	opt stack 22
  5823                           
  5824                           ;LEDLogic.c: 312: for (uint8_t i = 0; i < 24; i++) {
  5825                           
  5826                           ;incstack = 0
  5827  001CC0  0100               	movlb	0	; () banked
  5828  001CC2  6B78               	clrf	playDamage@i& (0+255),b
  5829  001CC4                     l3150:
  5830                           
  5831                           ; BSR set to: 0
  5832                           ;LEDLogic.c: 313: colorRed();
  5833  001CC4  EC58  F00B         	call	_colorRed	;wreg free
  5834  001CC8  0100               	movlb	0	; () banked
  5835  001CCA  2B78               	incf	playDamage@i& (0+255),f,b
  5836                           
  5837                           ; BSR set to: 0
  5838  001CCC  0E17               	movlw	23
  5839  001CCE  6578               	cpfsgt	playDamage@i& (0+255),b
  5840  001CD0  D7F9               	goto	l3150
  5841                           
  5842                           ; BSR set to: 0
  5843                           ;LEDLogic.c: 314: }
  5844                           ;LEDLogic.c: 316: delay_25ms_n_times(5);
  5845  001CD2  0E00               	movlw	0
  5846  001CD4  6F76               	movwf	(delay_25ms_n_times@n+1)& (0+255),b
  5847  001CD6  0E05               	movlw	5
  5848  001CD8  6F75               	movwf	delay_25ms_n_times@n& (0+255),b
  5849  001CDA  EC47  F00E         	call	_delay_25ms_n_times	;wreg free
  5850                           
  5851                           ;LEDLogic.c: 317: clearPattern();
  5852  001CDE  EC90  F00E         	call	_clearPattern	;wreg free
  5853                           
  5854                           ;LEDLogic.c: 318: delay_25ms_n_times(5);
  5855  001CE2  0E00               	movlw	0
  5856  001CE4  0100               	movlb	0	; () banked
  5857  001CE6  6F76               	movwf	(delay_25ms_n_times@n+1)& (0+255),b
  5858  001CE8  0E05               	movlw	5
  5859  001CEA  6F75               	movwf	delay_25ms_n_times@n& (0+255),b
  5860  001CEC  EF47  F00E         	goto	_delay_25ms_n_times	;wreg free
  5861  001CF0                     __end_of_playDamage:
  5862                           	opt stack 0
  5863                           intcon	equ	0xFF2
  5864                           intcon2	equ	0xFF1
  5865                           postinc0	equ	0xFEE
  5866                           wreg	equ	0xFE8
  5867                           
  5868 ;; *************** function _clearPattern *****************
  5869 ;; Defined at:
  5870 ;;		line 301 in file "LEDLogic.c"
  5871 ;; Parameters:    Size  Location     Type
  5872 ;;		None
  5873 ;; Auto vars:     Size  Location     Type
  5874 ;;  i               2    1[BANK0 ] int 
  5875 ;; Return value:  Size  Location     Type
  5876 ;;                  1    wreg      void 
  5877 ;; Registers used:
  5878 ;;		wreg, status,2, status,0, cstack
  5879 ;; Tracked objects:
  5880 ;;		On entry : 0/0
  5881 ;;		On exit  : 0/0
  5882 ;;		Unchanged: 0/0
  5883 ;; Data sizes:     COMRAM   BANK0   BANK1   BANK2   BANK3   BANK4   BANK5   BANK6   BANK7   BANK8   BANK9  BANK10  BANK1
      +1  BANK12  BANK13  BANK14  BANK15
  5884 ;;      Params:         0       0       0       0       0       0       0       0       0       0       0       0       
      +0       0       0       0       0
  5885 ;;      Locals:         0       2       0       0       0       0       0       0       0       0       0       0       
      +0       0       0       0       0
  5886 ;;      Temps:          0       1       0       0       0       0       0       0       0       0       0       0       
      +0       0       0       0       0
  5887 ;;      Totals:         0       3       0       0       0       0       0       0       0       0       0       0       
      +0       0       0       0       0
  5888 ;;Total ram usage:        3 bytes
  5889 ;; Hardware stack levels used:    1
  5890 ;; Hardware stack levels required when called:    6
  5891 ;; This function calls:
  5892 ;;		_colorBlack
  5893 ;; This function is called by:
  5894 ;;		_playDamage
  5895 ;;		_playStunSelf
  5896 ;;		_LED_play_pattern
  5897 ;; This function uses a non-reentrant model
  5898 ;;
  5899                           
  5900                           	psect	text33
  5901  001D20                     __ptext33:
  5902                           	opt stack 0
  5903  001D20                     _clearPattern:
  5904                           	opt stack 22
  5905                           
  5906                           ;LEDLogic.c: 302: for (int i = 0; i < 24; i++) {
  5907                           
  5908                           ;incstack = 0
  5909  001D20  0100               	movlb	0	; () banked
  5910  001D22  6B76               	clrf	clearPattern@i& (0+255),b
  5911  001D24  6B77               	clrf	(clearPattern@i+1)& (0+255),b
  5912  001D26                     l3118:
  5913                           
  5914                           ; BSR set to: 0
  5915                           ;LEDLogic.c: 303: colorBlack();
  5916  001D26  EC8C  F00C         	call	_colorBlack	;wreg free
  5917  001D2A  0100               	movlb	0	; () banked
  5918  001D2C  4B76               	infsnz	clearPattern@i& (0+255),f,b
  5919  001D2E  2B77               	incf	(clearPattern@i+1)& (0+255),f,b
  5920                           
  5921                           ; BSR set to: 0
  5922  001D30  BF77               	btfsc	(clearPattern@i+1)& (0+255),7,b
  5923  001D32  D7F9               	goto	l3118
  5924  001D34  5177               	movf	(clearPattern@i+1)& (0+255),w,b
  5925  001D36  E103               	bnz	u1220
  5926  001D38  0E18               	movlw	24
  5927  001D3A  5D76               	subwf	clearPattern@i& (0+255),w,b
  5928  001D3C  E3F4               	bnc	l3118
  5929  001D3E                     u1220:
  5930                           
  5931                           ; BSR set to: 0
  5932                           ;LEDLogic.c: 304: }
  5933                           ;LEDLogic.c: 306: _delay((unsigned long)((10)*(16000000/4000.0)));
  5934  001D3E  0E34               	movlw	52
  5935  001D40  6F75               	movwf	??_clearPattern& (0+255),b
  5936  001D42  0EF2               	movlw	242
  5937  001D44                     u1707:
  5938  001D44  2EE8               	decfsz	wreg,f,c
  5939  001D46  D7FE               	goto	u1707
  5940  001D48  2F75               	decfsz	??_clearPattern& (0+255),f,b
  5941  001D4A  D7FC               	goto	u1707
  5942  001D4C  0012               	return		;funcret
  5943  001D4E                     __end_of_clearPattern:
  5944                           	opt stack 0
  5945                           intcon	equ	0xFF2
  5946                           intcon2	equ	0xFF1
  5947                           postinc0	equ	0xFEE
  5948                           wreg	equ	0xFE8
  5949                           
  5950 ;; *************** function _colorBlack *****************
  5951 ;; Defined at:
  5952 ;;		line 26 in file "LEDLogic.c"
  5953 ;; Parameters:    Size  Location     Type
  5954 ;;		None
  5955 ;; Auto vars:     Size  Location     Type
  5956 ;;		None
  5957 ;; Return value:  Size  Location     Type
  5958 ;;                  1    wreg      void 
  5959 ;; Registers used:
  5960 ;;		cstack
  5961 ;; Tracked objects:
  5962 ;;		On entry : 0/0
  5963 ;;		On exit  : 0/0
  5964 ;;		Unchanged: 0/0
  5965 ;; Data sizes:     COMRAM   BANK0   BANK1   BANK2   BANK3   BANK4   BANK5   BANK6   BANK7   BANK8   BANK9  BANK10  BANK1
      +1  BANK12  BANK13  BANK14  BANK15
  5966 ;;      Params:         0       0       0       0       0       0       0       0       0       0       0       0       
      +0       0       0       0       0
  5967 ;;      Locals:         0       0       0       0       0       0       0       0       0       0       0       0       
      +0       0       0       0       0
  5968 ;;      Temps:          0       0       0       0       0       0       0       0       0       0       0       0       
      +0       0       0       0       0
  5969 ;;      Totals:         0       0       0       0       0       0       0       0       0       0       0       0       
      +0       0       0       0       0
  5970 ;;Total ram usage:        0 bytes
  5971 ;; Hardware stack levels used:    1
  5972 ;; Hardware stack levels required when called:    5
  5973 ;; This function calls:
  5974 ;;		_LEDZero
  5975 ;; This function is called by:
  5976 ;;		_clearPattern
  5977 ;; This function uses a non-reentrant model
  5978 ;;
  5979                           
  5980                           	psect	text34
  5981  001918                     __ptext34:
  5982                           	opt stack 0
  5983  001918                     _colorBlack:
  5984                           	opt stack 0
  5985  001918                     i121L__ptext39:
  5986                           	opt stack 0
  5987  001918                     i121L_LEDZero:
  5988                           	opt stack 0
  5989  001918                     i121Ll3090:
  5990                           	opt stack 23
  5991                           
  5992                           ;LEDLogic.c: 20: LATBbits.LATB4 = 1;
  5993  001918  888A               	bsf	3978,4,c	;volatile
  5994                           
  5995                           ;LEDLogic.c: 21: __nop();
  5996  00191A  F000               	nop	
  5997                           
  5998                           ;LEDLogic.c: 22: LATBbits.LATB4 = 0;
  5999  00191C  988A               	bcf	3978,4,c	;volatile
  6000                           
  6001                           ;LEDLogic.c: 23: __nop();
  6002  00191E  F000               	nop	
  6003  001920                     i121Ll277:
  6004                           	opt stack 0
  6005  001920                     i122L__ptext39:
  6006                           	opt stack 0
  6007  001920                     i122L_LEDZero:
  6008                           	opt stack 0
  6009  001920                     i122Ll3090:
  6010                           	opt stack 23
  6011                           
  6012                           ;LEDLogic.c: 20: LATBbits.LATB4 = 1;
  6013  001920  888A               	bsf	3978,4,c	;volatile
  6014                           
  6015                           ;LEDLogic.c: 21: __nop();
  6016  001922  F000               	nop	
  6017                           
  6018                           ;LEDLogic.c: 22: LATBbits.LATB4 = 0;
  6019  001924  988A               	bcf	3978,4,c	;volatile
  6020                           
  6021                           ;LEDLogic.c: 23: __nop();
  6022  001926  F000               	nop	
  6023  001928                     i122Ll277:
  6024                           	opt stack 0
  6025  001928                     i123L__ptext39:
  6026                           	opt stack 0
  6027  001928                     i123L_LEDZero:
  6028                           	opt stack 0
  6029  001928                     i123Ll3090:
  6030                           	opt stack 23
  6031                           
  6032                           ;LEDLogic.c: 20: LATBbits.LATB4 = 1;
  6033  001928  888A               	bsf	3978,4,c	;volatile
  6034                           
  6035                           ;LEDLogic.c: 21: __nop();
  6036  00192A  F000               	nop	
  6037                           
  6038                           ;LEDLogic.c: 22: LATBbits.LATB4 = 0;
  6039  00192C  988A               	bcf	3978,4,c	;volatile
  6040                           
  6041                           ;LEDLogic.c: 23: __nop();
  6042  00192E  F000               	nop	
  6043  001930                     i123Ll277:
  6044                           	opt stack 0
  6045  001930                     i124L__ptext39:
  6046                           	opt stack 0
  6047  001930                     i124L_LEDZero:
  6048                           	opt stack 0
  6049  001930                     i124Ll3090:
  6050                           	opt stack 23
  6051                           
  6052                           ;LEDLogic.c: 20: LATBbits.LATB4 = 1;
  6053  001930  888A               	bsf	3978,4,c	;volatile
  6054                           
  6055                           ;LEDLogic.c: 21: __nop();
  6056  001932  F000               	nop	
  6057                           
  6058                           ;LEDLogic.c: 22: LATBbits.LATB4 = 0;
  6059  001934  988A               	bcf	3978,4,c	;volatile
  6060                           
  6061                           ;LEDLogic.c: 23: __nop();
  6062  001936  F000               	nop	
  6063  001938                     i124Ll277:
  6064                           	opt stack 0
  6065  001938                     i125L__ptext39:
  6066                           	opt stack 0
  6067  001938                     i125L_LEDZero:
  6068                           	opt stack 0
  6069  001938                     i125Ll3090:
  6070                           	opt stack 23
  6071                           
  6072                           ;LEDLogic.c: 20: LATBbits.LATB4 = 1;
  6073  001938  888A               	bsf	3978,4,c	;volatile
  6074                           
  6075                           ;LEDLogic.c: 21: __nop();
  6076  00193A  F000               	nop	
  6077                           
  6078                           ;LEDLogic.c: 22: LATBbits.LATB4 = 0;
  6079  00193C  988A               	bcf	3978,4,c	;volatile
  6080                           
  6081                           ;LEDLogic.c: 23: __nop();
  6082  00193E  F000               	nop	
  6083  001940                     i125Ll277:
  6084                           	opt stack 0
  6085  001940                     i126L__ptext39:
  6086                           	opt stack 0
  6087  001940                     i126L_LEDZero:
  6088                           	opt stack 0
  6089  001940                     i126Ll3090:
  6090                           	opt stack 23
  6091                           
  6092                           ;LEDLogic.c: 20: LATBbits.LATB4 = 1;
  6093  001940  888A               	bsf	3978,4,c	;volatile
  6094                           
  6095                           ;LEDLogic.c: 21: __nop();
  6096  001942  F000               	nop	
  6097                           
  6098                           ;LEDLogic.c: 22: LATBbits.LATB4 = 0;
  6099  001944  988A               	bcf	3978,4,c	;volatile
  6100                           
  6101                           ;LEDLogic.c: 23: __nop();
  6102  001946  F000               	nop	
  6103  001948                     i126Ll277:
  6104                           	opt stack 0
  6105  001948                     i127L__ptext39:
  6106                           	opt stack 0
  6107  001948                     i127L_LEDZero:
  6108                           	opt stack 0
  6109  001948                     i127Ll3090:
  6110                           	opt stack 23
  6111                           
  6112                           ;LEDLogic.c: 20: LATBbits.LATB4 = 1;
  6113  001948  888A               	bsf	3978,4,c	;volatile
  6114                           
  6115                           ;LEDLogic.c: 21: __nop();
  6116  00194A  F000               	nop	
  6117                           
  6118                           ;LEDLogic.c: 22: LATBbits.LATB4 = 0;
  6119  00194C  988A               	bcf	3978,4,c	;volatile
  6120                           
  6121                           ;LEDLogic.c: 23: __nop();
  6122  00194E  F000               	nop	
  6123  001950                     i127Ll277:
  6124                           	opt stack 0
  6125  001950                     i128L__ptext39:
  6126                           	opt stack 0
  6127  001950                     i128L_LEDZero:
  6128                           	opt stack 0
  6129  001950                     i128Ll3090:
  6130                           	opt stack 23
  6131                           
  6132                           ;LEDLogic.c: 20: LATBbits.LATB4 = 1;
  6133  001950  888A               	bsf	3978,4,c	;volatile
  6134                           
  6135                           ;LEDLogic.c: 21: __nop();
  6136  001952  F000               	nop	
  6137                           
  6138                           ;LEDLogic.c: 22: LATBbits.LATB4 = 0;
  6139  001954  988A               	bcf	3978,4,c	;volatile
  6140                           
  6141                           ;LEDLogic.c: 23: __nop();
  6142  001956  F000               	nop	
  6143  001958                     i128Ll277:
  6144                           	opt stack 0
  6145  001958                     i129L__ptext39:
  6146                           	opt stack 0
  6147  001958                     i129L_LEDZero:
  6148                           	opt stack 0
  6149  001958                     i129Ll3090:
  6150                           	opt stack 23
  6151                           
  6152                           ;LEDLogic.c: 20: LATBbits.LATB4 = 1;
  6153  001958  888A               	bsf	3978,4,c	;volatile
  6154                           
  6155                           ;LEDLogic.c: 21: __nop();
  6156  00195A  F000               	nop	
  6157                           
  6158                           ;LEDLogic.c: 22: LATBbits.LATB4 = 0;
  6159  00195C  988A               	bcf	3978,4,c	;volatile
  6160                           
  6161                           ;LEDLogic.c: 23: __nop();
  6162  00195E  F000               	nop	
  6163  001960                     i129Ll277:
  6164                           	opt stack 0
  6165  001960                     i130L__ptext39:
  6166                           	opt stack 0
  6167  001960                     i130L_LEDZero:
  6168                           	opt stack 0
  6169  001960                     i130Ll3090:
  6170                           	opt stack 23
  6171                           
  6172                           ;LEDLogic.c: 20: LATBbits.LATB4 = 1;
  6173  001960  888A               	bsf	3978,4,c	;volatile
  6174                           
  6175                           ;LEDLogic.c: 21: __nop();
  6176  001962  F000               	nop	
  6177                           
  6178                           ;LEDLogic.c: 22: LATBbits.LATB4 = 0;
  6179  001964  988A               	bcf	3978,4,c	;volatile
  6180                           
  6181                           ;LEDLogic.c: 23: __nop();
  6182  001966  F000               	nop	
  6183  001968                     i130Ll277:
  6184                           	opt stack 0
  6185  001968                     i131L__ptext39:
  6186                           	opt stack 0
  6187  001968                     i131L_LEDZero:
  6188                           	opt stack 0
  6189  001968                     i131Ll3090:
  6190                           	opt stack 23
  6191                           
  6192                           ;LEDLogic.c: 20: LATBbits.LATB4 = 1;
  6193  001968  888A               	bsf	3978,4,c	;volatile
  6194                           
  6195                           ;LEDLogic.c: 21: __nop();
  6196  00196A  F000               	nop	
  6197                           
  6198                           ;LEDLogic.c: 22: LATBbits.LATB4 = 0;
  6199  00196C  988A               	bcf	3978,4,c	;volatile
  6200                           
  6201                           ;LEDLogic.c: 23: __nop();
  6202  00196E  F000               	nop	
  6203  001970                     i131Ll277:
  6204                           	opt stack 0
  6205  001970                     i132L__ptext39:
  6206                           	opt stack 0
  6207  001970                     i132L_LEDZero:
  6208                           	opt stack 0
  6209  001970                     i132Ll3090:
  6210                           	opt stack 23
  6211                           
  6212                           ;LEDLogic.c: 20: LATBbits.LATB4 = 1;
  6213  001970  888A               	bsf	3978,4,c	;volatile
  6214                           
  6215                           ;LEDLogic.c: 21: __nop();
  6216  001972  F000               	nop	
  6217                           
  6218                           ;LEDLogic.c: 22: LATBbits.LATB4 = 0;
  6219  001974  988A               	bcf	3978,4,c	;volatile
  6220                           
  6221                           ;LEDLogic.c: 23: __nop();
  6222  001976  F000               	nop	
  6223  001978                     i132Ll277:
  6224                           	opt stack 0
  6225  001978                     i133L__ptext39:
  6226                           	opt stack 0
  6227  001978                     i133L_LEDZero:
  6228                           	opt stack 0
  6229  001978                     i133Ll3090:
  6230                           	opt stack 23
  6231                           
  6232                           ;LEDLogic.c: 20: LATBbits.LATB4 = 1;
  6233  001978  888A               	bsf	3978,4,c	;volatile
  6234                           
  6235                           ;LEDLogic.c: 21: __nop();
  6236  00197A  F000               	nop	
  6237                           
  6238                           ;LEDLogic.c: 22: LATBbits.LATB4 = 0;
  6239  00197C  988A               	bcf	3978,4,c	;volatile
  6240                           
  6241                           ;LEDLogic.c: 23: __nop();
  6242  00197E  F000               	nop	
  6243  001980                     i133Ll277:
  6244                           	opt stack 0
  6245  001980                     i134L__ptext39:
  6246                           	opt stack 0
  6247  001980                     i134L_LEDZero:
  6248                           	opt stack 0
  6249  001980                     i134Ll3090:
  6250                           	opt stack 23
  6251                           
  6252                           ;LEDLogic.c: 20: LATBbits.LATB4 = 1;
  6253  001980  888A               	bsf	3978,4,c	;volatile
  6254                           
  6255                           ;LEDLogic.c: 21: __nop();
  6256  001982  F000               	nop	
  6257                           
  6258                           ;LEDLogic.c: 22: LATBbits.LATB4 = 0;
  6259  001984  988A               	bcf	3978,4,c	;volatile
  6260                           
  6261                           ;LEDLogic.c: 23: __nop();
  6262  001986  F000               	nop	
  6263  001988                     i134Ll277:
  6264                           	opt stack 0
  6265  001988                     i135L__ptext39:
  6266                           	opt stack 0
  6267  001988                     i135L_LEDZero:
  6268                           	opt stack 0
  6269  001988                     i135Ll3090:
  6270                           	opt stack 23
  6271                           
  6272                           ;LEDLogic.c: 20: LATBbits.LATB4 = 1;
  6273  001988  888A               	bsf	3978,4,c	;volatile
  6274                           
  6275                           ;LEDLogic.c: 21: __nop();
  6276  00198A  F000               	nop	
  6277                           
  6278                           ;LEDLogic.c: 22: LATBbits.LATB4 = 0;
  6279  00198C  988A               	bcf	3978,4,c	;volatile
  6280                           
  6281                           ;LEDLogic.c: 23: __nop();
  6282  00198E  F000               	nop	
  6283  001990                     i135Ll277:
  6284                           	opt stack 0
  6285  001990                     i136L__ptext39:
  6286                           	opt stack 0
  6287  001990                     i136L_LEDZero:
  6288                           	opt stack 0
  6289  001990                     i136Ll3090:
  6290                           	opt stack 23
  6291                           
  6292                           ;LEDLogic.c: 20: LATBbits.LATB4 = 1;
  6293  001990  888A               	bsf	3978,4,c	;volatile
  6294                           
  6295                           ;LEDLogic.c: 21: __nop();
  6296  001992  F000               	nop	
  6297                           
  6298                           ;LEDLogic.c: 22: LATBbits.LATB4 = 0;
  6299  001994  988A               	bcf	3978,4,c	;volatile
  6300                           
  6301                           ;LEDLogic.c: 23: __nop();
  6302  001996  F000               	nop	
  6303  001998                     i136Ll277:
  6304                           	opt stack 0
  6305  001998                     i137L__ptext39:
  6306                           	opt stack 0
  6307  001998                     i137L_LEDZero:
  6308                           	opt stack 0
  6309  001998                     i137Ll3090:
  6310                           	opt stack 23
  6311                           
  6312                           ;LEDLogic.c: 20: LATBbits.LATB4 = 1;
  6313  001998  888A               	bsf	3978,4,c	;volatile
  6314                           
  6315                           ;LEDLogic.c: 21: __nop();
  6316  00199A  F000               	nop	
  6317                           
  6318                           ;LEDLogic.c: 22: LATBbits.LATB4 = 0;
  6319  00199C  988A               	bcf	3978,4,c	;volatile
  6320                           
  6321                           ;LEDLogic.c: 23: __nop();
  6322  00199E  F000               	nop	
  6323  0019A0                     i137Ll277:
  6324                           	opt stack 0
  6325  0019A0                     i138L__ptext39:
  6326                           	opt stack 0
  6327  0019A0                     i138L_LEDZero:
  6328                           	opt stack 0
  6329  0019A0                     i138Ll3090:
  6330                           	opt stack 23
  6331                           
  6332                           ;LEDLogic.c: 20: LATBbits.LATB4 = 1;
  6333  0019A0  888A               	bsf	3978,4,c	;volatile
  6334                           
  6335                           ;LEDLogic.c: 21: __nop();
  6336  0019A2  F000               	nop	
  6337                           
  6338                           ;LEDLogic.c: 22: LATBbits.LATB4 = 0;
  6339  0019A4  988A               	bcf	3978,4,c	;volatile
  6340                           
  6341                           ;LEDLogic.c: 23: __nop();
  6342  0019A6  F000               	nop	
  6343  0019A8                     i138Ll277:
  6344                           	opt stack 0
  6345  0019A8                     i139L__ptext39:
  6346                           	opt stack 0
  6347  0019A8                     i139L_LEDZero:
  6348                           	opt stack 0
  6349  0019A8                     i139Ll3090:
  6350                           	opt stack 23
  6351                           
  6352                           ;LEDLogic.c: 20: LATBbits.LATB4 = 1;
  6353  0019A8  888A               	bsf	3978,4,c	;volatile
  6354                           
  6355                           ;LEDLogic.c: 21: __nop();
  6356  0019AA  F000               	nop	
  6357                           
  6358                           ;LEDLogic.c: 22: LATBbits.LATB4 = 0;
  6359  0019AC  988A               	bcf	3978,4,c	;volatile
  6360                           
  6361                           ;LEDLogic.c: 23: __nop();
  6362  0019AE  F000               	nop	
  6363  0019B0                     i139Ll277:
  6364                           	opt stack 0
  6365  0019B0                     i140L__ptext39:
  6366                           	opt stack 0
  6367  0019B0                     i140L_LEDZero:
  6368                           	opt stack 0
  6369  0019B0                     i140Ll3090:
  6370                           	opt stack 23
  6371                           
  6372                           ;LEDLogic.c: 20: LATBbits.LATB4 = 1;
  6373  0019B0  888A               	bsf	3978,4,c	;volatile
  6374                           
  6375                           ;LEDLogic.c: 21: __nop();
  6376  0019B2  F000               	nop	
  6377                           
  6378                           ;LEDLogic.c: 22: LATBbits.LATB4 = 0;
  6379  0019B4  988A               	bcf	3978,4,c	;volatile
  6380                           
  6381                           ;LEDLogic.c: 23: __nop();
  6382  0019B6  F000               	nop	
  6383  0019B8                     i140Ll277:
  6384                           	opt stack 0
  6385  0019B8                     i141L__ptext39:
  6386                           	opt stack 0
  6387  0019B8                     i141L_LEDZero:
  6388                           	opt stack 0
  6389  0019B8                     i141Ll3090:
  6390                           	opt stack 23
  6391                           
  6392                           ;LEDLogic.c: 20: LATBbits.LATB4 = 1;
  6393  0019B8  888A               	bsf	3978,4,c	;volatile
  6394                           
  6395                           ;LEDLogic.c: 21: __nop();
  6396  0019BA  F000               	nop	
  6397                           
  6398                           ;LEDLogic.c: 22: LATBbits.LATB4 = 0;
  6399  0019BC  988A               	bcf	3978,4,c	;volatile
  6400                           
  6401                           ;LEDLogic.c: 23: __nop();
  6402  0019BE  F000               	nop	
  6403  0019C0                     i141Ll277:
  6404                           	opt stack 0
  6405  0019C0                     i142L__ptext39:
  6406                           	opt stack 0
  6407  0019C0                     i142L_LEDZero:
  6408                           	opt stack 0
  6409  0019C0                     i142Ll3090:
  6410                           	opt stack 23
  6411                           
  6412                           ;LEDLogic.c: 20: LATBbits.LATB4 = 1;
  6413  0019C0  888A               	bsf	3978,4,c	;volatile
  6414                           
  6415                           ;LEDLogic.c: 21: __nop();
  6416  0019C2  F000               	nop	
  6417                           
  6418                           ;LEDLogic.c: 22: LATBbits.LATB4 = 0;
  6419  0019C4  988A               	bcf	3978,4,c	;volatile
  6420                           
  6421                           ;LEDLogic.c: 23: __nop();
  6422  0019C6  F000               	nop	
  6423  0019C8                     i142Ll277:
  6424                           	opt stack 0
  6425  0019C8                     i143L__ptext39:
  6426                           	opt stack 0
  6427  0019C8                     i143L_LEDZero:
  6428                           	opt stack 0
  6429  0019C8                     i143Ll3090:
  6430                           	opt stack 23
  6431                           
  6432                           ;LEDLogic.c: 20: LATBbits.LATB4 = 1;
  6433  0019C8  888A               	bsf	3978,4,c	;volatile
  6434                           
  6435                           ;LEDLogic.c: 21: __nop();
  6436  0019CA  F000               	nop	
  6437                           
  6438                           ;LEDLogic.c: 22: LATBbits.LATB4 = 0;
  6439  0019CC  988A               	bcf	3978,4,c	;volatile
  6440                           
  6441                           ;LEDLogic.c: 23: __nop();
  6442  0019CE  F000               	nop	
  6443  0019D0                     i143Ll277:
  6444                           	opt stack 0
  6445  0019D0                     i144L__ptext39:
  6446                           	opt stack 0
  6447  0019D0                     i144L_LEDZero:
  6448                           	opt stack 0
  6449  0019D0                     i144Ll3090:
  6450                           	opt stack 23
  6451                           
  6452                           ;LEDLogic.c: 20: LATBbits.LATB4 = 1;
  6453  0019D0  888A               	bsf	3978,4,c	;volatile
  6454                           
  6455                           ;LEDLogic.c: 21: __nop();
  6456  0019D2  F000               	nop	
  6457                           
  6458                           ;LEDLogic.c: 22: LATBbits.LATB4 = 0;
  6459  0019D4  988A               	bcf	3978,4,c	;volatile
  6460                           
  6461                           ;LEDLogic.c: 23: __nop();
  6462  0019D6  F000               	nop	
  6463  0019D8                     i144Ll277:
  6464                           	opt stack 0
  6465  0019D8  0012               	return	
  6466  0019DA                     __end_of_colorBlack:
  6467                           	opt stack 0
  6468                           intcon	equ	0xFF2
  6469                           intcon2	equ	0xFF1
  6470                           postinc0	equ	0xFEE
  6471                           wreg	equ	0xFE8
  6472                           
  6473 ;; *************** function _playArmed *****************
  6474 ;; Defined at:
  6475 ;;		line 322 in file "LEDLogic.c"
  6476 ;; Parameters:    Size  Location     Type
  6477 ;;		None
  6478 ;; Auto vars:     Size  Location     Type
  6479 ;;  i               1    4[BANK0 ] char 
  6480 ;;  j               1    3[BANK0 ] char 
  6481 ;; Return value:  Size  Location     Type
  6482 ;;                  1    wreg      void 
  6483 ;; Registers used:
  6484 ;;		wreg, status,2, status,0, cstack
  6485 ;; Tracked objects:
  6486 ;;		On entry : 0/0
  6487 ;;		On exit  : F/0
  6488 ;;		Unchanged: 0/0
  6489 ;; Data sizes:     COMRAM   BANK0   BANK1   BANK2   BANK3   BANK4   BANK5   BANK6   BANK7   BANK8   BANK9  BANK10  BANK1
      +1  BANK12  BANK13  BANK14  BANK15
  6490 ;;      Params:         0       0       0       0       0       0       0       0       0       0       0       0       
      +0       0       0       0       0
  6491 ;;      Locals:         0       2       0       0       0       0       0       0       0       0       0       0       
      +0       0       0       0       0
  6492 ;;      Temps:          0       0       0       0       0       0       0       0       0       0       0       0       
      +0       0       0       0       0
  6493 ;;      Totals:         0       2       0       0       0       0       0       0       0       0       0       0       
      +0       0       0       0       0
  6494 ;;Total ram usage:        2 bytes
  6495 ;; Hardware stack levels used:    1
  6496 ;; Hardware stack levels required when called:    6
  6497 ;; This function calls:
  6498 ;;		_colorRed
  6499 ;;		_colorRedTwo
  6500 ;;		_delay_25ms_n_times
  6501 ;; This function is called by:
  6502 ;;		_LED_play_pattern
  6503 ;; This function uses a non-reentrant model
  6504 ;;
  6505                           
  6506                           	psect	text35
  6507  001BA6                     __ptext35:
  6508                           	opt stack 0
  6509  001BA6                     _playArmed:
  6510                           	opt stack 23
  6511                           
  6512                           ;LEDLogic.c: 325: int8_t j = 0;
  6513                           
  6514                           ;incstack = 0
  6515  001BA6  0100               	movlb	0	; () banked
  6516  001BA8  6B78               	clrf	playArmed@j& (0+255),b
  6517                           
  6518                           ;LEDLogic.c: 326: int8_t i;
  6519                           ;LEDLogic.c: 328: while (j < 5) {
  6520  001BAA  D02B               	goto	l3192
  6521  001BAC                     l318:
  6522                           
  6523                           ; BSR set to: 0
  6524                           ;LEDLogic.c: 330: for (i = 0; i < 24; i++) {
  6525  001BAC  6B79               	clrf	playArmed@i& (0+255),b
  6526  001BAE                     l319:
  6527                           
  6528                           ; BSR set to: 0
  6529                           ;LEDLogic.c: 332: if(i % 2) {
  6530  001BAE  A179               	btfss	playArmed@i& (0+255),0,b
  6531  001BB0  D003               	goto	l3166
  6532                           
  6533                           ; BSR set to: 0
  6534                           ;LEDLogic.c: 333: colorRed();
  6535  001BB2  EC58  F00B         	call	_colorRed	;wreg free
  6536                           
  6537                           ;LEDLogic.c: 334: } else {
  6538  001BB6  D002               	goto	l3168
  6539  001BB8                     l3166:
  6540                           
  6541                           ; BSR set to: 0
  6542                           ;LEDLogic.c: 335: colorRedTwo();
  6543  001BB8  ECC1  F00B         	call	_colorRedTwo	;wreg free
  6544  001BBC                     l3168:
  6545  001BBC  0100               	movlb	0	; () banked
  6546  001BBE  2B79               	incf	playArmed@i& (0+255),f,b
  6547                           
  6548                           ; BSR set to: 0
  6549  001BC0  5179               	movf	playArmed@i& (0+255),w,b
  6550  001BC2  0A80               	xorlw	128
  6551  001BC4  0F68               	addlw	-152
  6552  001BC6  E3F3               	bnc	l319
  6553                           
  6554                           ; BSR set to: 0
  6555                           ;LEDLogic.c: 336: }
  6556                           ;LEDLogic.c: 337: }
  6557                           ;LEDLogic.c: 339: delay_25ms_n_times(11);
  6558  001BC8  0E00               	movlw	0
  6559  001BCA  6F76               	movwf	(delay_25ms_n_times@n+1)& (0+255),b
  6560  001BCC  0E0B               	movlw	11
  6561  001BCE  6F75               	movwf	delay_25ms_n_times@n& (0+255),b
  6562  001BD0  EC47  F00E         	call	_delay_25ms_n_times	;wreg free
  6563                           
  6564                           ;LEDLogic.c: 341: for (i = 0; i < 24; i++) {
  6565  001BD4  0100               	movlb	0	; () banked
  6566  001BD6  6B79               	clrf	playArmed@i& (0+255),b
  6567  001BD8                     l323:
  6568                           
  6569                           ; BSR set to: 0
  6570                           ;LEDLogic.c: 343: if(i % 2){
  6571  001BD8  A179               	btfss	playArmed@i& (0+255),0,b
  6572  001BDA  D003               	goto	l3182
  6573                           
  6574                           ; BSR set to: 0
  6575                           ;LEDLogic.c: 344: colorRedTwo();
  6576  001BDC  ECC1  F00B         	call	_colorRedTwo	;wreg free
  6577                           
  6578                           ;LEDLogic.c: 345: } else {
  6579  001BE0  D002               	goto	l3184
  6580  001BE2                     l3182:
  6581                           
  6582                           ; BSR set to: 0
  6583                           ;LEDLogic.c: 346: colorRed();
  6584  001BE2  EC58  F00B         	call	_colorRed	;wreg free
  6585  001BE6                     l3184:
  6586  001BE6  0100               	movlb	0	; () banked
  6587  001BE8  2B79               	incf	playArmed@i& (0+255),f,b
  6588                           
  6589                           ; BSR set to: 0
  6590  001BEA  5179               	movf	playArmed@i& (0+255),w,b
  6591  001BEC  0A80               	xorlw	128
  6592  001BEE  0F68               	addlw	-152
  6593  001BF0  E3F3               	bnc	l323
  6594                           
  6595                           ; BSR set to: 0
  6596                           ;LEDLogic.c: 347: }
  6597                           ;LEDLogic.c: 348: }
  6598                           ;LEDLogic.c: 350: delay_25ms_n_times(11);
  6599  001BF2  0E00               	movlw	0
  6600  001BF4  6F76               	movwf	(delay_25ms_n_times@n+1)& (0+255),b
  6601  001BF6  0E0B               	movlw	11
  6602  001BF8  6F75               	movwf	delay_25ms_n_times@n& (0+255),b
  6603  001BFA  EC47  F00E         	call	_delay_25ms_n_times	;wreg free
  6604                           
  6605                           ;LEDLogic.c: 352: j++;
  6606  001BFE  0100               	movlb	0	; () banked
  6607  001C00  2B78               	incf	playArmed@j& (0+255),f,b
  6608  001C02                     l3192:
  6609                           
  6610                           ; BSR set to: 0
  6611  001C02  5178               	movf	playArmed@j& (0+255),w,b
  6612  001C04  0A80               	xorlw	128
  6613  001C06  0F7B               	addlw	-133
  6614  001C08  E3D1               	bnc	l318
  6615                           
  6616                           ; BSR set to: 0
  6617  001C0A  0012               	return		;funcret
  6618  001C0C                     __end_of_playArmed:
  6619                           	opt stack 0
  6620                           intcon	equ	0xFF2
  6621                           intcon2	equ	0xFF1
  6622                           postinc0	equ	0xFEE
  6623                           wreg	equ	0xFE8
  6624                           
  6625 ;; *************** function _delay_25ms_n_times *****************
  6626 ;; Defined at:
  6627 ;;		line 10 in file "util_functions.c"
  6628 ;; Parameters:    Size  Location     Type
  6629 ;;  n               2    0[BANK0 ] unsigned int 
  6630 ;; Auto vars:     Size  Location     Type
  6631 ;;		None
  6632 ;; Return value:  Size  Location     Type
  6633 ;;                  1    wreg      void 
  6634 ;; Registers used:
  6635 ;;		wreg, status,2, status,0
  6636 ;; Tracked objects:
  6637 ;;		On entry : F/0
  6638 ;;		On exit  : 0/0
  6639 ;;		Unchanged: 0/0
  6640 ;; Data sizes:     COMRAM   BANK0   BANK1   BANK2   BANK3   BANK4   BANK5   BANK6   BANK7   BANK8   BANK9  BANK10  BANK1
      +1  BANK12  BANK13  BANK14  BANK15
  6641 ;;      Params:         0       2       0       0       0       0       0       0       0       0       0       0       
      +0       0       0       0       0
  6642 ;;      Locals:         0       0       0       0       0       0       0       0       0       0       0       0       
      +0       0       0       0       0
  6643 ;;      Temps:          0       1       0       0       0       0       0       0       0       0       0       0       
      +0       0       0       0       0
  6644 ;;      Totals:         0       3       0       0       0       0       0       0       0       0       0       0       
      +0       0       0       0       0
  6645 ;;Total ram usage:        3 bytes
  6646 ;; Hardware stack levels used:    1
  6647 ;; Hardware stack levels required when called:    4
  6648 ;; This function calls:
  6649 ;;		Nothing
  6650 ;; This function is called by:
  6651 ;;		_playDamage
  6652 ;;		_playArmed
  6653 ;;		_playElementDamage
  6654 ;;		_playHeal
  6655 ;;		_playStun
  6656 ;;		_playTestPassed
  6657 ;;		_playTestFailed
  6658 ;;		_main
  6659 ;; This function uses a non-reentrant model
  6660 ;;
  6661                           
  6662                           	psect	text36
  6663  001C8E                     __ptext36:
  6664                           	opt stack 0
  6665  001C8E                     _delay_25ms_n_times:
  6666                           	opt stack 26
  6667  001C8E                     l3126:
  6668                           
  6669                           ; BSR set to: 0
  6670  001C8E  5176               	movf	(delay_25ms_n_times@n+1)& (0+255),w,b
  6671  001C90  E103               	bnz	l3130
  6672  001C92  0E02               	movlw	2
  6673  001C94  5D75               	subwf	delay_25ms_n_times@n& (0+255),w,b
  6674  001C96  E30C               	bnc	l3134
  6675  001C98                     l3130:
  6676                           
  6677                           ; BSR set to: 0
  6678                           ;util_functions.c: 13: _delay((unsigned long)((25)*(16000000/4000.0)));
  6679  001C98  0E82               	movlw	130
  6680  001C9A  6F77               	movwf	??_delay_25ms_n_times& (0+255),b
  6681  001C9C  0EDE               	movlw	222
  6682  001C9E                     u1717:
  6683  001C9E  2EE8               	decfsz	wreg,f,c
  6684  001CA0  D7FE               	goto	u1717
  6685  001CA2  2F77               	decfsz	??_delay_25ms_n_times& (0+255),f,b
  6686  001CA4  D7FC               	goto	u1717
  6687  001CA6  0100               	movlb	0	; () banked
  6688  001CA8  0775               	decf	delay_25ms_n_times@n& (0+255),f,b
  6689  001CAA  A0D8               	btfss	status,0,c
  6690  001CAC  0776               	decf	(delay_25ms_n_times@n+1)& (0+255),f,b
  6691  001CAE  D7EF               	goto	l3126
  6692  001CB0                     l3134:
  6693                           
  6694                           ; BSR set to: 0
  6695                           ;util_functions.c: 14: }
  6696                           ;util_functions.c: 16: _delay((unsigned long)((25)*(16000000/4000.0)));
  6697  001CB0  0E82               	movlw	130
  6698  001CB2  6F77               	movwf	??_delay_25ms_n_times& (0+255),b
  6699  001CB4  0EDE               	movlw	222
  6700  001CB6                     u1727:
  6701  001CB6  2EE8               	decfsz	wreg,f,c
  6702  001CB8  D7FE               	goto	u1727
  6703  001CBA  2F77               	decfsz	??_delay_25ms_n_times& (0+255),f,b
  6704  001CBC  D7FC               	goto	u1727
  6705  001CBE  0012               	return		;funcret
  6706  001CC0                     __end_of_delay_25ms_n_times:
  6707                           	opt stack 0
  6708                           intcon	equ	0xFF2
  6709                           intcon2	equ	0xFF1
  6710                           postinc0	equ	0xFEE
  6711                           wreg	equ	0xFE8
  6712                           status	equ	0xFD8
  6713                           
  6714 ;; *************** function _colorRedTwo *****************
  6715 ;; Defined at:
  6716 ;;		line 86 in file "LEDLogic.c"
  6717 ;; Parameters:    Size  Location     Type
  6718 ;;		None
  6719 ;; Auto vars:     Size  Location     Type
  6720 ;;		None
  6721 ;; Return value:  Size  Location     Type
  6722 ;;                  1    wreg      void 
  6723 ;; Registers used:
  6724 ;;		cstack
  6725 ;; Tracked objects:
  6726 ;;		On entry : F/0
  6727 ;;		On exit  : 0/0
  6728 ;;		Unchanged: 0/0
  6729 ;; Data sizes:     COMRAM   BANK0   BANK1   BANK2   BANK3   BANK4   BANK5   BANK6   BANK7   BANK8   BANK9  BANK10  BANK1
      +1  BANK12  BANK13  BANK14  BANK15
  6730 ;;      Params:         0       0       0       0       0       0       0       0       0       0       0       0       
      +0       0       0       0       0
  6731 ;;      Locals:         0       0       0       0       0       0       0       0       0       0       0       0       
      +0       0       0       0       0
  6732 ;;      Temps:          0       0       0       0       0       0       0       0       0       0       0       0       
      +0       0       0       0       0
  6733 ;;      Totals:         0       0       0       0       0       0       0       0       0       0       0       0       
      +0       0       0       0       0
  6734 ;;Total ram usage:        0 bytes
  6735 ;; Hardware stack levels used:    1
  6736 ;; Hardware stack levels required when called:    5
  6737 ;; This function calls:
  6738 ;;		_LEDOne
  6739 ;;		_LEDZero
  6740 ;; This function is called by:
  6741 ;;		_playArmed
  6742 ;; This function uses a non-reentrant model
  6743 ;;
  6744                           
  6745                           	psect	text37
  6746  001782                     __ptext37:
  6747                           	opt stack 0
  6748  001782                     _colorRedTwo:
  6749                           	opt stack 0
  6750  001782                     i145L__ptext39:
  6751                           	opt stack 0
  6752  001782                     i145L_LEDZero:
  6753                           	opt stack 0
  6754  001782                     i145Ll3090:
  6755                           	opt stack 23
  6756                           
  6757                           ;LEDLogic.c: 20: LATBbits.LATB4 = 1;
  6758  001782  888A               	bsf	3978,4,c	;volatile
  6759                           
  6760                           ;LEDLogic.c: 21: __nop();
  6761  001784  F000               	nop	
  6762                           
  6763                           ;LEDLogic.c: 22: LATBbits.LATB4 = 0;
  6764  001786  988A               	bcf	3978,4,c	;volatile
  6765                           
  6766                           ;LEDLogic.c: 23: __nop();
  6767  001788  F000               	nop	
  6768  00178A                     i145Ll277:
  6769                           	opt stack 0
  6770  00178A                     i146L__ptext39:
  6771                           	opt stack 0
  6772  00178A                     i146L_LEDZero:
  6773                           	opt stack 0
  6774  00178A                     i146Ll3090:
  6775                           	opt stack 23
  6776                           
  6777                           ;LEDLogic.c: 20: LATBbits.LATB4 = 1;
  6778  00178A  888A               	bsf	3978,4,c	;volatile
  6779                           
  6780                           ;LEDLogic.c: 21: __nop();
  6781  00178C  F000               	nop	
  6782                           
  6783                           ;LEDLogic.c: 22: LATBbits.LATB4 = 0;
  6784  00178E  988A               	bcf	3978,4,c	;volatile
  6785                           
  6786                           ;LEDLogic.c: 23: __nop();
  6787  001790  F000               	nop	
  6788  001792                     i146Ll277:
  6789                           	opt stack 0
  6790  001792                     i147L__ptext39:
  6791                           	opt stack 0
  6792  001792                     i147L_LEDZero:
  6793                           	opt stack 0
  6794  001792                     i147Ll3090:
  6795                           	opt stack 23
  6796                           
  6797                           ;LEDLogic.c: 20: LATBbits.LATB4 = 1;
  6798  001792  888A               	bsf	3978,4,c	;volatile
  6799                           
  6800                           ;LEDLogic.c: 21: __nop();
  6801  001794  F000               	nop	
  6802                           
  6803                           ;LEDLogic.c: 22: LATBbits.LATB4 = 0;
  6804  001796  988A               	bcf	3978,4,c	;volatile
  6805                           
  6806                           ;LEDLogic.c: 23: __nop();
  6807  001798  F000               	nop	
  6808  00179A                     i147Ll277:
  6809                           	opt stack 0
  6810  00179A                     i148L__ptext39:
  6811                           	opt stack 0
  6812  00179A                     i148L_LEDZero:
  6813                           	opt stack 0
  6814  00179A                     i148Ll3090:
  6815                           	opt stack 23
  6816                           
  6817                           ;LEDLogic.c: 20: LATBbits.LATB4 = 1;
  6818  00179A  888A               	bsf	3978,4,c	;volatile
  6819                           
  6820                           ;LEDLogic.c: 21: __nop();
  6821  00179C  F000               	nop	
  6822                           
  6823                           ;LEDLogic.c: 22: LATBbits.LATB4 = 0;
  6824  00179E  988A               	bcf	3978,4,c	;volatile
  6825                           
  6826                           ;LEDLogic.c: 23: __nop();
  6827  0017A0  F000               	nop	
  6828  0017A2                     i148Ll277:
  6829                           	opt stack 0
  6830  0017A2                     i149L__ptext39:
  6831                           	opt stack 0
  6832  0017A2                     i149L_LEDZero:
  6833                           	opt stack 0
  6834  0017A2                     i149Ll3090:
  6835                           	opt stack 23
  6836                           
  6837                           ;LEDLogic.c: 20: LATBbits.LATB4 = 1;
  6838  0017A2  888A               	bsf	3978,4,c	;volatile
  6839                           
  6840                           ;LEDLogic.c: 21: __nop();
  6841  0017A4  F000               	nop	
  6842                           
  6843                           ;LEDLogic.c: 22: LATBbits.LATB4 = 0;
  6844  0017A6  988A               	bcf	3978,4,c	;volatile
  6845                           
  6846                           ;LEDLogic.c: 23: __nop();
  6847  0017A8  F000               	nop	
  6848  0017AA                     i149Ll277:
  6849                           	opt stack 0
  6850  0017AA                     i150L__ptext39:
  6851                           	opt stack 0
  6852  0017AA                     i150L_LEDZero:
  6853                           	opt stack 0
  6854  0017AA                     i150Ll3090:
  6855                           	opt stack 23
  6856                           
  6857                           ;LEDLogic.c: 20: LATBbits.LATB4 = 1;
  6858  0017AA  888A               	bsf	3978,4,c	;volatile
  6859                           
  6860                           ;LEDLogic.c: 21: __nop();
  6861  0017AC  F000               	nop	
  6862                           
  6863                           ;LEDLogic.c: 22: LATBbits.LATB4 = 0;
  6864  0017AE  988A               	bcf	3978,4,c	;volatile
  6865                           
  6866                           ;LEDLogic.c: 23: __nop();
  6867  0017B0  F000               	nop	
  6868  0017B2                     i150Ll277:
  6869                           	opt stack 0
  6870  0017B2                     i151L__ptext39:
  6871                           	opt stack 0
  6872  0017B2                     i151L_LEDZero:
  6873                           	opt stack 0
  6874  0017B2                     i151Ll3090:
  6875                           	opt stack 23
  6876                           
  6877                           ;LEDLogic.c: 20: LATBbits.LATB4 = 1;
  6878  0017B2  888A               	bsf	3978,4,c	;volatile
  6879                           
  6880                           ;LEDLogic.c: 21: __nop();
  6881  0017B4  F000               	nop	
  6882                           
  6883                           ;LEDLogic.c: 22: LATBbits.LATB4 = 0;
  6884  0017B6  988A               	bcf	3978,4,c	;volatile
  6885                           
  6886                           ;LEDLogic.c: 23: __nop();
  6887  0017B8  F000               	nop	
  6888  0017BA                     i151Ll277:
  6889                           	opt stack 0
  6890  0017BA                     i152L__ptext39:
  6891                           	opt stack 0
  6892  0017BA                     i152L_LEDZero:
  6893                           	opt stack 0
  6894  0017BA                     i152Ll3090:
  6895                           	opt stack 23
  6896                           
  6897                           ;LEDLogic.c: 20: LATBbits.LATB4 = 1;
  6898  0017BA  888A               	bsf	3978,4,c	;volatile
  6899                           
  6900                           ;LEDLogic.c: 21: __nop();
  6901  0017BC  F000               	nop	
  6902                           
  6903                           ;LEDLogic.c: 22: LATBbits.LATB4 = 0;
  6904  0017BE  988A               	bcf	3978,4,c	;volatile
  6905                           
  6906                           ;LEDLogic.c: 23: __nop();
  6907  0017C0  F000               	nop	
  6908  0017C2                     i152Ll277:
  6909                           	opt stack 0
  6910  0017C2                     i153L__ptext39:
  6911                           	opt stack 0
  6912  0017C2                     i153L_LEDZero:
  6913                           	opt stack 0
  6914  0017C2                     i153Ll3090:
  6915                           	opt stack 23
  6916                           
  6917                           ;LEDLogic.c: 20: LATBbits.LATB4 = 1;
  6918  0017C2  888A               	bsf	3978,4,c	;volatile
  6919                           
  6920                           ;LEDLogic.c: 21: __nop();
  6921  0017C4  F000               	nop	
  6922                           
  6923                           ;LEDLogic.c: 22: LATBbits.LATB4 = 0;
  6924  0017C6  988A               	bcf	3978,4,c	;volatile
  6925                           
  6926                           ;LEDLogic.c: 23: __nop();
  6927  0017C8  F000               	nop	
  6928  0017CA                     i153Ll277:
  6929                           	opt stack 0
  6930  0017CA                     i154L__ptext40:
  6931                           	opt stack 0
  6932  0017CA                     i154L_LEDOne:
  6933                           	opt stack 0
  6934  0017CA                     i154Ll3092:
  6935                           	opt stack 23
  6936                           
  6937                           ;LEDLogic.c: 10: LATBbits.LATB4 = 1;
  6938  0017CA  888A               	bsf	3978,4,c	;volatile
  6939                           
  6940                           ;LEDLogic.c: 11: __nop();
  6941  0017CC  F000               	nop	
  6942                           
  6943                           ;LEDLogic.c: 12: __nop();
  6944  0017CE  F000               	nop	
  6945                           
  6946                           ;LEDLogic.c: 13: LATBbits.LATB4 = 0;
  6947  0017D0  988A               	bcf	3978,4,c	;volatile
  6948                           
  6949                           ;LEDLogic.c: 14: __nop();
  6950  0017D2  F000               	nop	
  6951  0017D4                     i154Ll274:
  6952                           	opt stack 0
  6953  0017D4                     i155L__ptext40:
  6954                           	opt stack 0
  6955  0017D4                     i155L_LEDOne:
  6956                           	opt stack 0
  6957  0017D4                     i155Ll3092:
  6958                           	opt stack 23
  6959                           
  6960                           ;LEDLogic.c: 10: LATBbits.LATB4 = 1;
  6961  0017D4  888A               	bsf	3978,4,c	;volatile
  6962                           
  6963                           ;LEDLogic.c: 11: __nop();
  6964  0017D6  F000               	nop	
  6965                           
  6966                           ;LEDLogic.c: 12: __nop();
  6967  0017D8  F000               	nop	
  6968                           
  6969                           ;LEDLogic.c: 13: LATBbits.LATB4 = 0;
  6970  0017DA  988A               	bcf	3978,4,c	;volatile
  6971                           
  6972                           ;LEDLogic.c: 14: __nop();
  6973  0017DC  F000               	nop	
  6974  0017DE                     i155Ll274:
  6975                           	opt stack 0
  6976  0017DE                     i156L__ptext40:
  6977                           	opt stack 0
  6978  0017DE                     i156L_LEDOne:
  6979                           	opt stack 0
  6980  0017DE                     i156Ll3092:
  6981                           	opt stack 23
  6982                           
  6983                           ;LEDLogic.c: 10: LATBbits.LATB4 = 1;
  6984  0017DE  888A               	bsf	3978,4,c	;volatile
  6985                           
  6986                           ;LEDLogic.c: 11: __nop();
  6987  0017E0  F000               	nop	
  6988                           
  6989                           ;LEDLogic.c: 12: __nop();
  6990  0017E2  F000               	nop	
  6991                           
  6992                           ;LEDLogic.c: 13: LATBbits.LATB4 = 0;
  6993  0017E4  988A               	bcf	3978,4,c	;volatile
  6994                           
  6995                           ;LEDLogic.c: 14: __nop();
  6996  0017E6  F000               	nop	
  6997  0017E8                     i156Ll274:
  6998                           	opt stack 0
  6999  0017E8                     i157L__ptext40:
  7000                           	opt stack 0
  7001  0017E8                     i157L_LEDOne:
  7002                           	opt stack 0
  7003  0017E8                     i157Ll3092:
  7004                           	opt stack 23
  7005                           
  7006                           ;LEDLogic.c: 10: LATBbits.LATB4 = 1;
  7007  0017E8  888A               	bsf	3978,4,c	;volatile
  7008                           
  7009                           ;LEDLogic.c: 11: __nop();
  7010  0017EA  F000               	nop	
  7011                           
  7012                           ;LEDLogic.c: 12: __nop();
  7013  0017EC  F000               	nop	
  7014                           
  7015                           ;LEDLogic.c: 13: LATBbits.LATB4 = 0;
  7016  0017EE  988A               	bcf	3978,4,c	;volatile
  7017                           
  7018                           ;LEDLogic.c: 14: __nop();
  7019  0017F0  F000               	nop	
  7020  0017F2                     i157Ll274:
  7021                           	opt stack 0
  7022  0017F2                     i158L__ptext40:
  7023                           	opt stack 0
  7024  0017F2                     i158L_LEDOne:
  7025                           	opt stack 0
  7026  0017F2                     i158Ll3092:
  7027                           	opt stack 23
  7028                           
  7029                           ;LEDLogic.c: 10: LATBbits.LATB4 = 1;
  7030  0017F2  888A               	bsf	3978,4,c	;volatile
  7031                           
  7032                           ;LEDLogic.c: 11: __nop();
  7033  0017F4  F000               	nop	
  7034                           
  7035                           ;LEDLogic.c: 12: __nop();
  7036  0017F6  F000               	nop	
  7037                           
  7038                           ;LEDLogic.c: 13: LATBbits.LATB4 = 0;
  7039  0017F8  988A               	bcf	3978,4,c	;volatile
  7040                           
  7041                           ;LEDLogic.c: 14: __nop();
  7042  0017FA  F000               	nop	
  7043  0017FC                     i158Ll274:
  7044                           	opt stack 0
  7045  0017FC                     i159L__ptext40:
  7046                           	opt stack 0
  7047  0017FC                     i159L_LEDOne:
  7048                           	opt stack 0
  7049  0017FC                     i159Ll3092:
  7050                           	opt stack 23
  7051                           
  7052                           ;LEDLogic.c: 10: LATBbits.LATB4 = 1;
  7053  0017FC  888A               	bsf	3978,4,c	;volatile
  7054                           
  7055                           ;LEDLogic.c: 11: __nop();
  7056  0017FE  F000               	nop	
  7057                           
  7058                           ;LEDLogic.c: 12: __nop();
  7059  001800  F000               	nop	
  7060                           
  7061                           ;LEDLogic.c: 13: LATBbits.LATB4 = 0;
  7062  001802  988A               	bcf	3978,4,c	;volatile
  7063                           
  7064                           ;LEDLogic.c: 14: __nop();
  7065  001804  F000               	nop	
  7066  001806                     i159Ll274:
  7067                           	opt stack 0
  7068  001806                     i160L__ptext40:
  7069                           	opt stack 0
  7070  001806                     i160L_LEDOne:
  7071                           	opt stack 0
  7072  001806                     i160Ll3092:
  7073                           	opt stack 23
  7074                           
  7075                           ;LEDLogic.c: 10: LATBbits.LATB4 = 1;
  7076  001806  888A               	bsf	3978,4,c	;volatile
  7077                           
  7078                           ;LEDLogic.c: 11: __nop();
  7079  001808  F000               	nop	
  7080                           
  7081                           ;LEDLogic.c: 12: __nop();
  7082  00180A  F000               	nop	
  7083                           
  7084                           ;LEDLogic.c: 13: LATBbits.LATB4 = 0;
  7085  00180C  988A               	bcf	3978,4,c	;volatile
  7086                           
  7087                           ;LEDLogic.c: 14: __nop();
  7088  00180E  F000               	nop	
  7089  001810                     i160Ll274:
  7090                           	opt stack 0
  7091  001810                     i161L__ptext39:
  7092                           	opt stack 0
  7093  001810                     i161L_LEDZero:
  7094                           	opt stack 0
  7095  001810                     i161Ll3090:
  7096                           	opt stack 23
  7097                           
  7098                           ;LEDLogic.c: 20: LATBbits.LATB4 = 1;
  7099  001810  888A               	bsf	3978,4,c	;volatile
  7100                           
  7101                           ;LEDLogic.c: 21: __nop();
  7102  001812  F000               	nop	
  7103                           
  7104                           ;LEDLogic.c: 22: LATBbits.LATB4 = 0;
  7105  001814  988A               	bcf	3978,4,c	;volatile
  7106                           
  7107                           ;LEDLogic.c: 23: __nop();
  7108  001816  F000               	nop	
  7109  001818                     i161Ll277:
  7110                           	opt stack 0
  7111  001818                     i162L__ptext39:
  7112                           	opt stack 0
  7113  001818                     i162L_LEDZero:
  7114                           	opt stack 0
  7115  001818                     i162Ll3090:
  7116                           	opt stack 23
  7117                           
  7118                           ;LEDLogic.c: 20: LATBbits.LATB4 = 1;
  7119  001818  888A               	bsf	3978,4,c	;volatile
  7120                           
  7121                           ;LEDLogic.c: 21: __nop();
  7122  00181A  F000               	nop	
  7123                           
  7124                           ;LEDLogic.c: 22: LATBbits.LATB4 = 0;
  7125  00181C  988A               	bcf	3978,4,c	;volatile
  7126                           
  7127                           ;LEDLogic.c: 23: __nop();
  7128  00181E  F000               	nop	
  7129  001820                     i162Ll277:
  7130                           	opt stack 0
  7131  001820                     i163L__ptext39:
  7132                           	opt stack 0
  7133  001820                     i163L_LEDZero:
  7134                           	opt stack 0
  7135  001820                     i163Ll3090:
  7136                           	opt stack 23
  7137                           
  7138                           ;LEDLogic.c: 20: LATBbits.LATB4 = 1;
  7139  001820  888A               	bsf	3978,4,c	;volatile
  7140                           
  7141                           ;LEDLogic.c: 21: __nop();
  7142  001822  F000               	nop	
  7143                           
  7144                           ;LEDLogic.c: 22: LATBbits.LATB4 = 0;
  7145  001824  988A               	bcf	3978,4,c	;volatile
  7146                           
  7147                           ;LEDLogic.c: 23: __nop();
  7148  001826  F000               	nop	
  7149  001828                     i163Ll277:
  7150                           	opt stack 0
  7151  001828                     i164L__ptext39:
  7152                           	opt stack 0
  7153  001828                     i164L_LEDZero:
  7154                           	opt stack 0
  7155  001828                     i164Ll3090:
  7156                           	opt stack 23
  7157                           
  7158                           ;LEDLogic.c: 20: LATBbits.LATB4 = 1;
  7159  001828  888A               	bsf	3978,4,c	;volatile
  7160                           
  7161                           ;LEDLogic.c: 21: __nop();
  7162  00182A  F000               	nop	
  7163                           
  7164                           ;LEDLogic.c: 22: LATBbits.LATB4 = 0;
  7165  00182C  988A               	bcf	3978,4,c	;volatile
  7166                           
  7167                           ;LEDLogic.c: 23: __nop();
  7168  00182E  F000               	nop	
  7169  001830                     i164Ll277:
  7170                           	opt stack 0
  7171  001830                     i165L__ptext39:
  7172                           	opt stack 0
  7173  001830                     i165L_LEDZero:
  7174                           	opt stack 0
  7175  001830                     i165Ll3090:
  7176                           	opt stack 23
  7177                           
  7178                           ;LEDLogic.c: 20: LATBbits.LATB4 = 1;
  7179  001830  888A               	bsf	3978,4,c	;volatile
  7180                           
  7181                           ;LEDLogic.c: 21: __nop();
  7182  001832  F000               	nop	
  7183                           
  7184                           ;LEDLogic.c: 22: LATBbits.LATB4 = 0;
  7185  001834  988A               	bcf	3978,4,c	;volatile
  7186                           
  7187                           ;LEDLogic.c: 23: __nop();
  7188  001836  F000               	nop	
  7189  001838                     i165Ll277:
  7190                           	opt stack 0
  7191  001838                     i166L__ptext39:
  7192                           	opt stack 0
  7193  001838                     i166L_LEDZero:
  7194                           	opt stack 0
  7195  001838                     i166Ll3090:
  7196                           	opt stack 23
  7197                           
  7198                           ;LEDLogic.c: 20: LATBbits.LATB4 = 1;
  7199  001838  888A               	bsf	3978,4,c	;volatile
  7200                           
  7201                           ;LEDLogic.c: 21: __nop();
  7202  00183A  F000               	nop	
  7203                           
  7204                           ;LEDLogic.c: 22: LATBbits.LATB4 = 0;
  7205  00183C  988A               	bcf	3978,4,c	;volatile
  7206                           
  7207                           ;LEDLogic.c: 23: __nop();
  7208  00183E  F000               	nop	
  7209  001840                     i166Ll277:
  7210                           	opt stack 0
  7211  001840                     i167L__ptext39:
  7212                           	opt stack 0
  7213  001840                     i167L_LEDZero:
  7214                           	opt stack 0
  7215  001840                     i167Ll3090:
  7216                           	opt stack 23
  7217                           
  7218                           ;LEDLogic.c: 20: LATBbits.LATB4 = 1;
  7219  001840  888A               	bsf	3978,4,c	;volatile
  7220                           
  7221                           ;LEDLogic.c: 21: __nop();
  7222  001842  F000               	nop	
  7223                           
  7224                           ;LEDLogic.c: 22: LATBbits.LATB4 = 0;
  7225  001844  988A               	bcf	3978,4,c	;volatile
  7226                           
  7227                           ;LEDLogic.c: 23: __nop();
  7228  001846  F000               	nop	
  7229  001848                     i167Ll277:
  7230                           	opt stack 0
  7231  001848                     i168L__ptext39:
  7232                           	opt stack 0
  7233  001848                     i168L_LEDZero:
  7234                           	opt stack 0
  7235  001848                     i168Ll3090:
  7236                           	opt stack 23
  7237                           
  7238                           ;LEDLogic.c: 20: LATBbits.LATB4 = 1;
  7239  001848  888A               	bsf	3978,4,c	;volatile
  7240                           
  7241                           ;LEDLogic.c: 21: __nop();
  7242  00184A  F000               	nop	
  7243                           
  7244                           ;LEDLogic.c: 22: LATBbits.LATB4 = 0;
  7245  00184C  988A               	bcf	3978,4,c	;volatile
  7246                           
  7247                           ;LEDLogic.c: 23: __nop();
  7248  00184E  F000               	nop	
  7249  001850                     i168Ll277:
  7250                           	opt stack 0
  7251  001850  0012               	return	
  7252  001852                     __end_of_colorRedTwo:
  7253                           	opt stack 0
  7254                           intcon	equ	0xFF2
  7255                           intcon2	equ	0xFF1
  7256                           postinc0	equ	0xFEE
  7257                           wreg	equ	0xFE8
  7258                           status	equ	0xFD8
  7259                           
  7260 ;; *************** function _colorRed *****************
  7261 ;; Defined at:
  7262 ;;		line 56 in file "LEDLogic.c"
  7263 ;; Parameters:    Size  Location     Type
  7264 ;;		None
  7265 ;; Auto vars:     Size  Location     Type
  7266 ;;		None
  7267 ;; Return value:  Size  Location     Type
  7268 ;;                  1    wreg      void 
  7269 ;; Registers used:
  7270 ;;		cstack
  7271 ;; Tracked objects:
  7272 ;;		On entry : F/0
  7273 ;;		On exit  : 0/0
  7274 ;;		Unchanged: 0/0
  7275 ;; Data sizes:     COMRAM   BANK0   BANK1   BANK2   BANK3   BANK4   BANK5   BANK6   BANK7   BANK8   BANK9  BANK10  BANK1
      +1  BANK12  BANK13  BANK14  BANK15
  7276 ;;      Params:         0       0       0       0       0       0       0       0       0       0       0       0       
      +0       0       0       0       0
  7277 ;;      Locals:         0       0       0       0       0       0       0       0       0       0       0       0       
      +0       0       0       0       0
  7278 ;;      Temps:          0       0       0       0       0       0       0       0       0       0       0       0       
      +0       0       0       0       0
  7279 ;;      Totals:         0       0       0       0       0       0       0       0       0       0       0       0       
      +0       0       0       0       0
  7280 ;;Total ram usage:        0 bytes
  7281 ;; Hardware stack levels used:    1
  7282 ;; Hardware stack levels required when called:    5
  7283 ;; This function calls:
  7284 ;;		_LEDOne
  7285 ;;		_LEDZero
  7286 ;; This function is called by:
  7287 ;;		_playDamage
  7288 ;;		_playArmed
  7289 ;;		_playStun
  7290 ;;		_playTestPassed
  7291 ;; This function uses a non-reentrant model
  7292 ;;
  7293                           
  7294                           	psect	text38
  7295  0016B0                     __ptext38:
  7296                           	opt stack 0
  7297  0016B0                     _colorRed:
  7298                           	opt stack 0
  7299  0016B0                     i169L__ptext39:
  7300                           	opt stack 0
  7301  0016B0                     i169L_LEDZero:
  7302                           	opt stack 0
  7303  0016B0                     i169Ll3090:
  7304                           	opt stack 23
  7305                           
  7306                           ;LEDLogic.c: 20: LATBbits.LATB4 = 1;
  7307  0016B0  888A               	bsf	3978,4,c	;volatile
  7308                           
  7309                           ;LEDLogic.c: 21: __nop();
  7310  0016B2  F000               	nop	
  7311                           
  7312                           ;LEDLogic.c: 22: LATBbits.LATB4 = 0;
  7313  0016B4  988A               	bcf	3978,4,c	;volatile
  7314                           
  7315                           ;LEDLogic.c: 23: __nop();
  7316  0016B6  F000               	nop	
  7317  0016B8                     i169Ll277:
  7318                           	opt stack 0
  7319  0016B8                     i170L__ptext39:
  7320                           	opt stack 0
  7321  0016B8                     i170L_LEDZero:
  7322                           	opt stack 0
  7323  0016B8                     i170Ll3090:
  7324                           	opt stack 23
  7325                           
  7326                           ;LEDLogic.c: 20: LATBbits.LATB4 = 1;
  7327  0016B8  888A               	bsf	3978,4,c	;volatile
  7328                           
  7329                           ;LEDLogic.c: 21: __nop();
  7330  0016BA  F000               	nop	
  7331                           
  7332                           ;LEDLogic.c: 22: LATBbits.LATB4 = 0;
  7333  0016BC  988A               	bcf	3978,4,c	;volatile
  7334                           
  7335                           ;LEDLogic.c: 23: __nop();
  7336  0016BE  F000               	nop	
  7337  0016C0                     i170Ll277:
  7338                           	opt stack 0
  7339  0016C0                     i171L__ptext39:
  7340                           	opt stack 0
  7341  0016C0                     i171L_LEDZero:
  7342                           	opt stack 0
  7343  0016C0                     i171Ll3090:
  7344                           	opt stack 23
  7345                           
  7346                           ;LEDLogic.c: 20: LATBbits.LATB4 = 1;
  7347  0016C0  888A               	bsf	3978,4,c	;volatile
  7348                           
  7349                           ;LEDLogic.c: 21: __nop();
  7350  0016C2  F000               	nop	
  7351                           
  7352                           ;LEDLogic.c: 22: LATBbits.LATB4 = 0;
  7353  0016C4  988A               	bcf	3978,4,c	;volatile
  7354                           
  7355                           ;LEDLogic.c: 23: __nop();
  7356  0016C6  F000               	nop	
  7357  0016C8                     i171Ll277:
  7358                           	opt stack 0
  7359  0016C8                     i172L__ptext39:
  7360                           	opt stack 0
  7361  0016C8                     i172L_LEDZero:
  7362                           	opt stack 0
  7363  0016C8                     i172Ll3090:
  7364                           	opt stack 23
  7365                           
  7366                           ;LEDLogic.c: 20: LATBbits.LATB4 = 1;
  7367  0016C8  888A               	bsf	3978,4,c	;volatile
  7368                           
  7369                           ;LEDLogic.c: 21: __nop();
  7370  0016CA  F000               	nop	
  7371                           
  7372                           ;LEDLogic.c: 22: LATBbits.LATB4 = 0;
  7373  0016CC  988A               	bcf	3978,4,c	;volatile
  7374                           
  7375                           ;LEDLogic.c: 23: __nop();
  7376  0016CE  F000               	nop	
  7377  0016D0                     i172Ll277:
  7378                           	opt stack 0
  7379  0016D0                     i173L__ptext39:
  7380                           	opt stack 0
  7381  0016D0                     i173L_LEDZero:
  7382                           	opt stack 0
  7383  0016D0                     i173Ll3090:
  7384                           	opt stack 23
  7385                           
  7386                           ;LEDLogic.c: 20: LATBbits.LATB4 = 1;
  7387  0016D0  888A               	bsf	3978,4,c	;volatile
  7388                           
  7389                           ;LEDLogic.c: 21: __nop();
  7390  0016D2  F000               	nop	
  7391                           
  7392                           ;LEDLogic.c: 22: LATBbits.LATB4 = 0;
  7393  0016D4  988A               	bcf	3978,4,c	;volatile
  7394                           
  7395                           ;LEDLogic.c: 23: __nop();
  7396  0016D6  F000               	nop	
  7397  0016D8                     i173Ll277:
  7398                           	opt stack 0
  7399  0016D8                     i174L__ptext39:
  7400                           	opt stack 0
  7401  0016D8                     i174L_LEDZero:
  7402                           	opt stack 0
  7403  0016D8                     i174Ll3090:
  7404                           	opt stack 23
  7405                           
  7406                           ;LEDLogic.c: 20: LATBbits.LATB4 = 1;
  7407  0016D8  888A               	bsf	3978,4,c	;volatile
  7408                           
  7409                           ;LEDLogic.c: 21: __nop();
  7410  0016DA  F000               	nop	
  7411                           
  7412                           ;LEDLogic.c: 22: LATBbits.LATB4 = 0;
  7413  0016DC  988A               	bcf	3978,4,c	;volatile
  7414                           
  7415                           ;LEDLogic.c: 23: __nop();
  7416  0016DE  F000               	nop	
  7417  0016E0                     i174Ll277:
  7418                           	opt stack 0
  7419  0016E0                     i175L__ptext39:
  7420                           	opt stack 0
  7421  0016E0                     i175L_LEDZero:
  7422                           	opt stack 0
  7423  0016E0                     i175Ll3090:
  7424                           	opt stack 23
  7425                           
  7426                           ;LEDLogic.c: 20: LATBbits.LATB4 = 1;
  7427  0016E0  888A               	bsf	3978,4,c	;volatile
  7428                           
  7429                           ;LEDLogic.c: 21: __nop();
  7430  0016E2  F000               	nop	
  7431                           
  7432                           ;LEDLogic.c: 22: LATBbits.LATB4 = 0;
  7433  0016E4  988A               	bcf	3978,4,c	;volatile
  7434                           
  7435                           ;LEDLogic.c: 23: __nop();
  7436  0016E6  F000               	nop	
  7437  0016E8                     i175Ll277:
  7438                           	opt stack 0
  7439  0016E8                     i176L__ptext39:
  7440                           	opt stack 0
  7441  0016E8                     i176L_LEDZero:
  7442                           	opt stack 0
  7443  0016E8                     i176Ll3090:
  7444                           	opt stack 23
  7445                           
  7446                           ;LEDLogic.c: 20: LATBbits.LATB4 = 1;
  7447  0016E8  888A               	bsf	3978,4,c	;volatile
  7448                           
  7449                           ;LEDLogic.c: 21: __nop();
  7450  0016EA  F000               	nop	
  7451                           
  7452                           ;LEDLogic.c: 22: LATBbits.LATB4 = 0;
  7453  0016EC  988A               	bcf	3978,4,c	;volatile
  7454                           
  7455                           ;LEDLogic.c: 23: __nop();
  7456  0016EE  F000               	nop	
  7457  0016F0                     i176Ll277:
  7458                           	opt stack 0
  7459  0016F0                     i177L__ptext40:
  7460                           	opt stack 0
  7461  0016F0                     i177L_LEDOne:
  7462                           	opt stack 0
  7463  0016F0                     i177Ll3092:
  7464                           	opt stack 23
  7465                           
  7466                           ;LEDLogic.c: 10: LATBbits.LATB4 = 1;
  7467  0016F0  888A               	bsf	3978,4,c	;volatile
  7468                           
  7469                           ;LEDLogic.c: 11: __nop();
  7470  0016F2  F000               	nop	
  7471                           
  7472                           ;LEDLogic.c: 12: __nop();
  7473  0016F4  F000               	nop	
  7474                           
  7475                           ;LEDLogic.c: 13: LATBbits.LATB4 = 0;
  7476  0016F6  988A               	bcf	3978,4,c	;volatile
  7477                           
  7478                           ;LEDLogic.c: 14: __nop();
  7479  0016F8  F000               	nop	
  7480  0016FA                     i177Ll274:
  7481                           	opt stack 0
  7482  0016FA                     i178L__ptext40:
  7483                           	opt stack 0
  7484  0016FA                     i178L_LEDOne:
  7485                           	opt stack 0
  7486  0016FA                     i178Ll3092:
  7487                           	opt stack 23
  7488                           
  7489                           ;LEDLogic.c: 10: LATBbits.LATB4 = 1;
  7490  0016FA  888A               	bsf	3978,4,c	;volatile
  7491                           
  7492                           ;LEDLogic.c: 11: __nop();
  7493  0016FC  F000               	nop	
  7494                           
  7495                           ;LEDLogic.c: 12: __nop();
  7496  0016FE  F000               	nop	
  7497                           
  7498                           ;LEDLogic.c: 13: LATBbits.LATB4 = 0;
  7499  001700  988A               	bcf	3978,4,c	;volatile
  7500                           
  7501                           ;LEDLogic.c: 14: __nop();
  7502  001702  F000               	nop	
  7503  001704                     i178Ll274:
  7504                           	opt stack 0
  7505  001704                     i179L__ptext40:
  7506                           	opt stack 0
  7507  001704                     i179L_LEDOne:
  7508                           	opt stack 0
  7509  001704                     i179Ll3092:
  7510                           	opt stack 23
  7511                           
  7512                           ;LEDLogic.c: 10: LATBbits.LATB4 = 1;
  7513  001704  888A               	bsf	3978,4,c	;volatile
  7514                           
  7515                           ;LEDLogic.c: 11: __nop();
  7516  001706  F000               	nop	
  7517                           
  7518                           ;LEDLogic.c: 12: __nop();
  7519  001708  F000               	nop	
  7520                           
  7521                           ;LEDLogic.c: 13: LATBbits.LATB4 = 0;
  7522  00170A  988A               	bcf	3978,4,c	;volatile
  7523                           
  7524                           ;LEDLogic.c: 14: __nop();
  7525  00170C  F000               	nop	
  7526  00170E                     i179Ll274:
  7527                           	opt stack 0
  7528  00170E                     i180L__ptext40:
  7529                           	opt stack 0
  7530  00170E                     i180L_LEDOne:
  7531                           	opt stack 0
  7532  00170E                     i180Ll3092:
  7533                           	opt stack 23
  7534                           
  7535                           ;LEDLogic.c: 10: LATBbits.LATB4 = 1;
  7536  00170E  888A               	bsf	3978,4,c	;volatile
  7537                           
  7538                           ;LEDLogic.c: 11: __nop();
  7539  001710  F000               	nop	
  7540                           
  7541                           ;LEDLogic.c: 12: __nop();
  7542  001712  F000               	nop	
  7543                           
  7544                           ;LEDLogic.c: 13: LATBbits.LATB4 = 0;
  7545  001714  988A               	bcf	3978,4,c	;volatile
  7546                           
  7547                           ;LEDLogic.c: 14: __nop();
  7548  001716  F000               	nop	
  7549  001718                     i180Ll274:
  7550                           	opt stack 0
  7551  001718                     i181L__ptext40:
  7552                           	opt stack 0
  7553  001718                     i181L_LEDOne:
  7554                           	opt stack 0
  7555  001718                     i181Ll3092:
  7556                           	opt stack 23
  7557                           
  7558                           ;LEDLogic.c: 10: LATBbits.LATB4 = 1;
  7559  001718  888A               	bsf	3978,4,c	;volatile
  7560                           
  7561                           ;LEDLogic.c: 11: __nop();
  7562  00171A  F000               	nop	
  7563                           
  7564                           ;LEDLogic.c: 12: __nop();
  7565  00171C  F000               	nop	
  7566                           
  7567                           ;LEDLogic.c: 13: LATBbits.LATB4 = 0;
  7568  00171E  988A               	bcf	3978,4,c	;volatile
  7569                           
  7570                           ;LEDLogic.c: 14: __nop();
  7571  001720  F000               	nop	
  7572  001722                     i181Ll274:
  7573                           	opt stack 0
  7574  001722                     i182L__ptext40:
  7575                           	opt stack 0
  7576  001722                     i182L_LEDOne:
  7577                           	opt stack 0
  7578  001722                     i182Ll3092:
  7579                           	opt stack 23
  7580                           
  7581                           ;LEDLogic.c: 10: LATBbits.LATB4 = 1;
  7582  001722  888A               	bsf	3978,4,c	;volatile
  7583                           
  7584                           ;LEDLogic.c: 11: __nop();
  7585  001724  F000               	nop	
  7586                           
  7587                           ;LEDLogic.c: 12: __nop();
  7588  001726  F000               	nop	
  7589                           
  7590                           ;LEDLogic.c: 13: LATBbits.LATB4 = 0;
  7591  001728  988A               	bcf	3978,4,c	;volatile
  7592                           
  7593                           ;LEDLogic.c: 14: __nop();
  7594  00172A  F000               	nop	
  7595  00172C                     i182Ll274:
  7596                           	opt stack 0
  7597  00172C                     i183L__ptext40:
  7598                           	opt stack 0
  7599  00172C                     i183L_LEDOne:
  7600                           	opt stack 0
  7601  00172C                     i183Ll3092:
  7602                           	opt stack 23
  7603                           
  7604                           ;LEDLogic.c: 10: LATBbits.LATB4 = 1;
  7605  00172C  888A               	bsf	3978,4,c	;volatile
  7606                           
  7607                           ;LEDLogic.c: 11: __nop();
  7608  00172E  F000               	nop	
  7609                           
  7610                           ;LEDLogic.c: 12: __nop();
  7611  001730  F000               	nop	
  7612                           
  7613                           ;LEDLogic.c: 13: LATBbits.LATB4 = 0;
  7614  001732  988A               	bcf	3978,4,c	;volatile
  7615                           
  7616                           ;LEDLogic.c: 14: __nop();
  7617  001734  F000               	nop	
  7618  001736                     i183Ll274:
  7619                           	opt stack 0
  7620  001736                     i184L__ptext40:
  7621                           	opt stack 0
  7622  001736                     i184L_LEDOne:
  7623                           	opt stack 0
  7624  001736                     i184Ll3092:
  7625                           	opt stack 23
  7626                           
  7627                           ;LEDLogic.c: 10: LATBbits.LATB4 = 1;
  7628  001736  888A               	bsf	3978,4,c	;volatile
  7629                           
  7630                           ;LEDLogic.c: 11: __nop();
  7631  001738  F000               	nop	
  7632                           
  7633                           ;LEDLogic.c: 12: __nop();
  7634  00173A  F000               	nop	
  7635                           
  7636                           ;LEDLogic.c: 13: LATBbits.LATB4 = 0;
  7637  00173C  988A               	bcf	3978,4,c	;volatile
  7638                           
  7639                           ;LEDLogic.c: 14: __nop();
  7640  00173E  F000               	nop	
  7641  001740                     i184Ll274:
  7642                           	opt stack 0
  7643  001740                     i185L__ptext39:
  7644                           	opt stack 0
  7645  001740                     i185L_LEDZero:
  7646                           	opt stack 0
  7647  001740                     i185Ll3090:
  7648                           	opt stack 23
  7649                           
  7650                           ;LEDLogic.c: 20: LATBbits.LATB4 = 1;
  7651  001740  888A               	bsf	3978,4,c	;volatile
  7652                           
  7653                           ;LEDLogic.c: 21: __nop();
  7654  001742  F000               	nop	
  7655                           
  7656                           ;LEDLogic.c: 22: LATBbits.LATB4 = 0;
  7657  001744  988A               	bcf	3978,4,c	;volatile
  7658                           
  7659                           ;LEDLogic.c: 23: __nop();
  7660  001746  F000               	nop	
  7661  001748                     i185Ll277:
  7662                           	opt stack 0
  7663  001748                     i186L__ptext39:
  7664                           	opt stack 0
  7665  001748                     i186L_LEDZero:
  7666                           	opt stack 0
  7667  001748                     i186Ll3090:
  7668                           	opt stack 23
  7669                           
  7670                           ;LEDLogic.c: 20: LATBbits.LATB4 = 1;
  7671  001748  888A               	bsf	3978,4,c	;volatile
  7672                           
  7673                           ;LEDLogic.c: 21: __nop();
  7674  00174A  F000               	nop	
  7675                           
  7676                           ;LEDLogic.c: 22: LATBbits.LATB4 = 0;
  7677  00174C  988A               	bcf	3978,4,c	;volatile
  7678                           
  7679                           ;LEDLogic.c: 23: __nop();
  7680  00174E  F000               	nop	
  7681  001750                     i186Ll277:
  7682                           	opt stack 0
  7683  001750                     i187L__ptext39:
  7684                           	opt stack 0
  7685  001750                     i187L_LEDZero:
  7686                           	opt stack 0
  7687  001750                     i187Ll3090:
  7688                           	opt stack 23
  7689                           
  7690                           ;LEDLogic.c: 20: LATBbits.LATB4 = 1;
  7691  001750  888A               	bsf	3978,4,c	;volatile
  7692                           
  7693                           ;LEDLogic.c: 21: __nop();
  7694  001752  F000               	nop	
  7695                           
  7696                           ;LEDLogic.c: 22: LATBbits.LATB4 = 0;
  7697  001754  988A               	bcf	3978,4,c	;volatile
  7698                           
  7699                           ;LEDLogic.c: 23: __nop();
  7700  001756  F000               	nop	
  7701  001758                     i187Ll277:
  7702                           	opt stack 0
  7703  001758                     i188L__ptext39:
  7704                           	opt stack 0
  7705  001758                     i188L_LEDZero:
  7706                           	opt stack 0
  7707  001758                     i188Ll3090:
  7708                           	opt stack 23
  7709                           
  7710                           ;LEDLogic.c: 20: LATBbits.LATB4 = 1;
  7711  001758  888A               	bsf	3978,4,c	;volatile
  7712                           
  7713                           ;LEDLogic.c: 21: __nop();
  7714  00175A  F000               	nop	
  7715                           
  7716                           ;LEDLogic.c: 22: LATBbits.LATB4 = 0;
  7717  00175C  988A               	bcf	3978,4,c	;volatile
  7718                           
  7719                           ;LEDLogic.c: 23: __nop();
  7720  00175E  F000               	nop	
  7721  001760                     i188Ll277:
  7722                           	opt stack 0
  7723  001760                     i189L__ptext39:
  7724                           	opt stack 0
  7725  001760                     i189L_LEDZero:
  7726                           	opt stack 0
  7727  001760                     i189Ll3090:
  7728                           	opt stack 23
  7729                           
  7730                           ;LEDLogic.c: 20: LATBbits.LATB4 = 1;
  7731  001760  888A               	bsf	3978,4,c	;volatile
  7732                           
  7733                           ;LEDLogic.c: 21: __nop();
  7734  001762  F000               	nop	
  7735                           
  7736                           ;LEDLogic.c: 22: LATBbits.LATB4 = 0;
  7737  001764  988A               	bcf	3978,4,c	;volatile
  7738                           
  7739                           ;LEDLogic.c: 23: __nop();
  7740  001766  F000               	nop	
  7741  001768                     i189Ll277:
  7742                           	opt stack 0
  7743  001768                     i190L__ptext39:
  7744                           	opt stack 0
  7745  001768                     i190L_LEDZero:
  7746                           	opt stack 0
  7747  001768                     i190Ll3090:
  7748                           	opt stack 23
  7749                           
  7750                           ;LEDLogic.c: 20: LATBbits.LATB4 = 1;
  7751  001768  888A               	bsf	3978,4,c	;volatile
  7752                           
  7753                           ;LEDLogic.c: 21: __nop();
  7754  00176A  F000               	nop	
  7755                           
  7756                           ;LEDLogic.c: 22: LATBbits.LATB4 = 0;
  7757  00176C  988A               	bcf	3978,4,c	;volatile
  7758                           
  7759                           ;LEDLogic.c: 23: __nop();
  7760  00176E  F000               	nop	
  7761  001770                     i190Ll277:
  7762                           	opt stack 0
  7763  001770                     i191L__ptext39:
  7764                           	opt stack 0
  7765  001770                     i191L_LEDZero:
  7766                           	opt stack 0
  7767  001770                     i191Ll3090:
  7768                           	opt stack 23
  7769                           
  7770                           ;LEDLogic.c: 20: LATBbits.LATB4 = 1;
  7771  001770  888A               	bsf	3978,4,c	;volatile
  7772                           
  7773                           ;LEDLogic.c: 21: __nop();
  7774  001772  F000               	nop	
  7775                           
  7776                           ;LEDLogic.c: 22: LATBbits.LATB4 = 0;
  7777  001774  988A               	bcf	3978,4,c	;volatile
  7778                           
  7779                           ;LEDLogic.c: 23: __nop();
  7780  001776  F000               	nop	
  7781  001778                     i191Ll277:
  7782                           	opt stack 0
  7783  001778                     i192L__ptext39:
  7784                           	opt stack 0
  7785  001778                     i192L_LEDZero:
  7786                           	opt stack 0
  7787  001778                     i192Ll3090:
  7788                           	opt stack 23
  7789                           
  7790                           ;LEDLogic.c: 20: LATBbits.LATB4 = 1;
  7791  001778  888A               	bsf	3978,4,c	;volatile
  7792                           
  7793                           ;LEDLogic.c: 21: __nop();
  7794  00177A  F000               	nop	
  7795                           
  7796                           ;LEDLogic.c: 22: LATBbits.LATB4 = 0;
  7797  00177C  988A               	bcf	3978,4,c	;volatile
  7798                           
  7799                           ;LEDLogic.c: 23: __nop();
  7800  00177E  F000               	nop	
  7801  001780                     i192Ll277:
  7802                           	opt stack 0
  7803  001780  0012               	return	
  7804  001782                     __end_of_colorRed:
  7805                           	opt stack 0
  7806                           intcon	equ	0xFF2
  7807                           intcon2	equ	0xFF1
  7808                           postinc0	equ	0xFEE
  7809                           wreg	equ	0xFE8
  7810                           status	equ	0xFD8
  7811                           
  7812 ;; *************** function _LEDZero *****************
  7813 ;; Defined at:
  7814 ;;		line 18 in file "LEDLogic.c"
  7815 ;; Parameters:    Size  Location     Type
  7816 ;;		None
  7817 ;; Auto vars:     Size  Location     Type
  7818 ;;		None
  7819 ;; Return value:  Size  Location     Type
  7820 ;;                  1    wreg      void 
  7821 ;; Registers used:
  7822 ;;		None
  7823 ;; Tracked objects:
  7824 ;;		On entry : 0/0
  7825 ;;		On exit  : 0/0
  7826 ;;		Unchanged: 0/0
  7827 ;; Data sizes:     COMRAM   BANK0   BANK1   BANK2   BANK3   BANK4   BANK5   BANK6   BANK7   BANK8   BANK9  BANK10  BANK1
      +1  BANK12  BANK13  BANK14  BANK15
  7828 ;;      Params:         0       0       0       0       0       0       0       0       0       0       0       0       
      +0       0       0       0       0
  7829 ;;      Locals:         0       0       0       0       0       0       0       0       0       0       0       0       
      +0       0       0       0       0
  7830 ;;      Temps:          0       0       0       0       0       0       0       0       0       0       0       0       
      +0       0       0       0       0
  7831 ;;      Totals:         0       0       0       0       0       0       0       0       0       0       0       0       
      +0       0       0       0       0
  7832 ;;Total ram usage:        0 bytes
  7833 ;; Hardware stack levels used:    1
  7834 ;; Hardware stack levels required when called:    4
  7835 ;; This function calls:
  7836 ;;		Nothing
  7837 ;; This function is called by:
  7838 ;;		_colorBlack
  7839 ;;		_colorRed
  7840 ;;		_colorRedTwo
  7841 ;;		_colorGreen
  7842 ;;		_colorYellow
  7843 ;;		_colorBlue
  7844 ;;		_colorBlueTwo
  7845 ;;		_colorPink
  7846 ;; This function uses a non-reentrant model
  7847 ;;
  7848                           
  7849                           	psect	text39
  7850  000000                     __ptext39:
  7851                           	opt stack 0
  7852  000000                     _LEDZero:
  7853                           	opt stack 0
  7854  000000                     __end_of_LEDZero:
  7855                           	opt stack 0
  7856                           intcon	equ	0xFF2
  7857                           intcon2	equ	0xFF1
  7858                           postinc0	equ	0xFEE
  7859                           wreg	equ	0xFE8
  7860                           status	equ	0xFD8
  7861                           
  7862 ;; *************** function _LEDOne *****************
  7863 ;; Defined at:
  7864 ;;		line 8 in file "LEDLogic.c"
  7865 ;; Parameters:    Size  Location     Type
  7866 ;;		None
  7867 ;; Auto vars:     Size  Location     Type
  7868 ;;		None
  7869 ;; Return value:  Size  Location     Type
  7870 ;;                  1    wreg      void 
  7871 ;; Registers used:
  7872 ;;		None
  7873 ;; Tracked objects:
  7874 ;;		On entry : 0/0
  7875 ;;		On exit  : 0/0
  7876 ;;		Unchanged: 0/0
  7877 ;; Data sizes:     COMRAM   BANK0   BANK1   BANK2   BANK3   BANK4   BANK5   BANK6   BANK7   BANK8   BANK9  BANK10  BANK1
      +1  BANK12  BANK13  BANK14  BANK15
  7878 ;;      Params:         0       0       0       0       0       0       0       0       0       0       0       0       
      +0       0       0       0       0
  7879 ;;      Locals:         0       0       0       0       0       0       0       0       0       0       0       0       
      +0       0       0       0       0
  7880 ;;      Temps:          0       0       0       0       0       0       0       0       0       0       0       0       
      +0       0       0       0       0
  7881 ;;      Totals:         0       0       0       0       0       0       0       0       0       0       0       0       
      +0       0       0       0       0
  7882 ;;Total ram usage:        0 bytes
  7883 ;; Hardware stack levels used:    1
  7884 ;; Hardware stack levels required when called:    4
  7885 ;; This function calls:
  7886 ;;		Nothing
  7887 ;; This function is called by:
  7888 ;;		_colorRed
  7889 ;;		_colorRedTwo
  7890 ;;		_colorGreen
  7891 ;;		_colorYellow
  7892 ;;		_colorBlue
  7893 ;;		_colorBlueTwo
  7894 ;;		_colorPink
  7895 ;; This function uses a non-reentrant model
  7896 ;;
  7897                           
  7898                           	psect	text40
  7899  000000                     __ptext40:
  7900                           	opt stack 0
  7901  000000                     _LEDOne:
  7902                           	opt stack 0
  7903  000000                     __end_of_LEDOne:
  7904                           	opt stack 0
  7905                           intcon	equ	0xFF2
  7906                           intcon2	equ	0xFF1
  7907                           postinc0	equ	0xFEE
  7908                           wreg	equ	0xFE8
  7909                           status	equ	0xFD8
  7910                           
  7911 ;; *************** function _INTERRUPT_InterruptManager *****************
  7912 ;; Defined at:
  7913 ;;		line 77 in file "mcc_generated_files/interrupt_manager.c"
  7914 ;; Parameters:    Size  Location     Type
  7915 ;;		None
  7916 ;; Auto vars:     Size  Location     Type
  7917 ;;		None
  7918 ;; Return value:  Size  Location     Type
  7919 ;;                  1    wreg      void 
  7920 ;; Registers used:
  7921 ;;		wreg, fsr2l, fsr2h, status,2, status,0, pclat, tosl, cstack
  7922 ;; Tracked objects:
  7923 ;;		On entry : 0/0
  7924 ;;		On exit  : 0/0
  7925 ;;		Unchanged: 0/0
  7926 ;; Data sizes:     COMRAM   BANK0   BANK1   BANK2   BANK3   BANK4   BANK5   BANK6   BANK7   BANK8   BANK9  BANK10  BANK1
      +1  BANK12  BANK13  BANK14  BANK15
  7927 ;;      Params:         0       0       0       0       0       0       0       0       0       0       0       0       
      +0       0       0       0       0
  7928 ;;      Locals:         0       0       0       0       0       0       0       0       0       0       0       0       
      +0       0       0       0       0
  7929 ;;      Temps:          4       0       0       0       0       0       0       0       0       0       0       0       
      +0       0       0       0       0
  7930 ;;      Totals:         4       0       0       0       0       0       0       0       0       0       0       0       
      +0       0       0       0       0
  7931 ;;Total ram usage:        4 bytes
  7932 ;; Hardware stack levels used:    1
  7933 ;; Hardware stack levels required when called:    3
  7934 ;; This function calls:
  7935 ;;		_CCP4_CaptureISR
  7936 ;;		_EUSART1_Receive_ISR
  7937 ;;		_EUSART1_Transmit_ISR
  7938 ;;		_EUSART2_Receive_ISR
  7939 ;;		_EUSART2_Transmit_ISR
  7940 ;;		_I2C2_BusCollisionISR
  7941 ;;		_I2C2_ISR
  7942 ;;		_TMR3_ISR
  7943 ;; This function is called by:
  7944 ;;		Interrupt level 2
  7945 ;; This function uses a non-reentrant model
  7946 ;;
  7947                           
  7948                           	psect	intcode
  7949  000008                     __pintcode:
  7950                           	opt stack 0
  7951  000008                     _INTERRUPT_InterruptManager:
  7952                           	opt stack 22
  7953                           
  7954                           ;incstack = 0
  7955  000008  8257               	bsf	btemp,1,c	;set compiler interrupt flag (level 2)
  7956  00000A  CFFA F04B          	movff	pclath,??_INTERRUPT_InterruptManager
  7957  00000E  CFFB F04C          	movff	pclatu,??_INTERRUPT_InterruptManager+1
  7958  000012  CFD9 F04D          	movff	fsr2l,??_INTERRUPT_InterruptManager+2
  7959  000016  CFDA F04E          	movff	fsr2h,??_INTERRUPT_InterruptManager+3
  7960                           
  7961                           ;interrupt_manager.c: 80: if(PIE3bits.BCL2IE == 1 && PIR3bits.BCL2IF == 1)
  7962  00001A  BCA3               	btfsc	4003,6,c	;volatile
  7963  00001C  ACA4               	btfss	4004,6,c	;volatile
  7964  00001E  D003               	goto	i2l560
  7965                           
  7966                           ;interrupt_manager.c: 81: {
  7967                           ;interrupt_manager.c: 82: I2C2_BusCollisionISR();
  7968  000020  EC31  F010         	call	_I2C2_BusCollisionISR	;wreg free
  7969                           
  7970                           ;interrupt_manager.c: 83: }
  7971  000024  D029               	goto	i2l576
  7972  000026                     i2l560:
  7973                           
  7974                           ;interrupt_manager.c: 84: else if(PIE3bits.SSP2IE == 1 && PIR3bits.SSP2IF == 1)
  7975  000026  BEA3               	btfsc	4003,7,c	;volatile
  7976  000028  AEA4               	btfss	4004,7,c	;volatile
  7977  00002A  D003               	goto	i2l562
  7978                           
  7979                           ;interrupt_manager.c: 85: {
  7980                           ;interrupt_manager.c: 86: I2C2_ISR();
  7981  00002C  EC0E  F008         	call	_I2C2_ISR	;wreg free
  7982                           
  7983                           ;interrupt_manager.c: 87: }
  7984  000030  D023               	goto	i2l576
  7985  000032                     i2l562:
  7986                           
  7987                           ;interrupt_manager.c: 88: else if(PIE3bits.TX2IE == 1 && PIR3bits.TX2IF == 1)
  7988  000032  B8A3               	btfsc	4003,4,c	;volatile
  7989  000034  A8A4               	btfss	4004,4,c	;volatile
  7990  000036  D003               	goto	i2l564
  7991                           
  7992                           ;interrupt_manager.c: 89: {
  7993                           ;interrupt_manager.c: 90: EUSART2_Transmit_ISR();
  7994  000038  EC46  F00F         	call	_EUSART2_Transmit_ISR	;wreg free
  7995                           
  7996                           ;interrupt_manager.c: 91: }
  7997  00003C  D01D               	goto	i2l576
  7998  00003E                     i2l564:
  7999                           
  8000                           ;interrupt_manager.c: 92: else if(PIE3bits.RC2IE == 1 && PIR3bits.RC2IF == 1)
  8001  00003E  BAA3               	btfsc	4003,5,c	;volatile
  8002  000040  AAA4               	btfss	4004,5,c	;volatile
  8003  000042  D003               	goto	i2l566
  8004                           
  8005                           ;interrupt_manager.c: 93: {
  8006                           ;interrupt_manager.c: 94: EUSART2_Receive_ISR();
  8007  000044  EC7B  F00F         	call	_EUSART2_Receive_ISR	;wreg free
  8008                           
  8009                           ;interrupt_manager.c: 95: }
  8010  000048  D017               	goto	i2l576
  8011  00004A                     i2l566:
  8012                           
  8013                           ;interrupt_manager.c: 96: else if(PIE4bits.CCP4IE == 1 && PIR4bits.CCP4IF == 1)
  8014  00004A  B27A               	btfsc	3962,1,c	;volatile
  8015  00004C  A27B               	btfss	3963,1,c	;volatile
  8016  00004E  D003               	goto	i2l568
  8017                           
  8018                           ;interrupt_manager.c: 97: {
  8019                           ;interrupt_manager.c: 98: CCP4_CaptureISR();
  8020  000050  ECF5  F00F         	call	_CCP4_CaptureISR	;wreg free
  8021                           
  8022                           ;interrupt_manager.c: 99: }
  8023  000054  D011               	goto	i2l576
  8024  000056                     i2l568:
  8025                           
  8026                           ;interrupt_manager.c: 100: else if(PIE1bits.TX1IE == 1 && PIR1bits.TX1IF == 1)
  8027  000056  B89D               	btfsc	3997,4,c	;volatile
  8028  000058  A89E               	btfss	3998,4,c	;volatile
  8029  00005A  D003               	goto	i2l570
  8030                           
  8031                           ;interrupt_manager.c: 101: {
  8032                           ;interrupt_manager.c: 102: EUSART1_Transmit_ISR();
  8033  00005C  EC58  F00F         	call	_EUSART1_Transmit_ISR	;wreg free
  8034                           
  8035                           ;interrupt_manager.c: 103: }
  8036  000060  D00B               	goto	i2l576
  8037  000062                     i2l570:
  8038                           
  8039                           ;interrupt_manager.c: 104: else if(PIE1bits.RC1IE == 1 && PIR1bits.RC1IF == 1)
  8040  000062  BA9D               	btfsc	3997,5,c	;volatile
  8041  000064  AA9E               	btfss	3998,5,c	;volatile
  8042  000066  D003               	goto	i2l572
  8043                           
  8044                           ;interrupt_manager.c: 105: {
  8045                           ;interrupt_manager.c: 106: EUSART1_Receive_ISR();
  8046  000068  EC8C  F00F         	call	_EUSART1_Receive_ISR	;wreg free
  8047                           
  8048                           ;interrupt_manager.c: 107: }
  8049  00006C  D005               	goto	i2l576
  8050  00006E                     i2l572:
  8051                           
  8052                           ;interrupt_manager.c: 108: else if(PIE2bits.TMR3IE == 1 && PIR2bits.TMR3IF == 1)
  8053  00006E  B2A0               	btfsc	4000,1,c	;volatile
  8054  000070  A2A1               	btfss	4001,1,c	;volatile
  8055  000072  D002               	goto	i2l576
  8056                           
  8057                           ;interrupt_manager.c: 109: {
  8058                           ;interrupt_manager.c: 110: TMR3_ISR();
  8059  000074  EC34  F00F         	call	_TMR3_ISR	;wreg free
  8060  000078                     i2l576:
  8061  000078  C04E  FFDA         	movff	??_INTERRUPT_InterruptManager+3,fsr2h
  8062  00007C  C04D  FFD9         	movff	??_INTERRUPT_InterruptManager+2,fsr2l
  8063  000080  C04C  FFFB         	movff	??_INTERRUPT_InterruptManager+1,pclatu
  8064  000084  C04B  FFFA         	movff	??_INTERRUPT_InterruptManager,pclath
  8065  000088  9257               	bcf	btemp,1,c	;clear compiler interrupt flag (level 2)
  8066  00008A  0011               	retfie		f
  8067  00008C                     __end_of_INTERRUPT_InterruptManager:
  8068                           	opt stack 0
  8069                           pclatu	equ	0xFFB
  8070                           pclath	equ	0xFFA
  8071                           intcon	equ	0xFF2
  8072                           intcon2	equ	0xFF1
  8073                           postinc0	equ	0xFEE
  8074                           wreg	equ	0xFE8
  8075                           fsr2h	equ	0xFDA
  8076                           fsr2l	equ	0xFD9
  8077                           status	equ	0xFD8
  8078                           
  8079 ;; *************** function _TMR3_ISR *****************
  8080 ;; Defined at:
  8081 ;;		line 160 in file "mcc_generated_files/tmr3.c"
  8082 ;; Parameters:    Size  Location     Type
  8083 ;;		None
  8084 ;; Auto vars:     Size  Location     Type
  8085 ;;		None
  8086 ;; Return value:  Size  Location     Type
  8087 ;;                  1    wreg      void 
  8088 ;; Registers used:
  8089 ;;		wreg, status,2, status,0, pclat, tosl, cstack
  8090 ;; Tracked objects:
  8091 ;;		On entry : 0/0
  8092 ;;		On exit  : 0/0
  8093 ;;		Unchanged: 0/0
  8094 ;; Data sizes:     COMRAM   BANK0   BANK1   BANK2   BANK3   BANK4   BANK5   BANK6   BANK7   BANK8   BANK9  BANK10  BANK1
      +1  BANK12  BANK13  BANK14  BANK15
  8095 ;;      Params:         0       0       0       0       0       0       0       0       0       0       0       0       
      +0       0       0       0       0
  8096 ;;      Locals:         0       0       0       0       0       0       0       0       0       0       0       0       
      +0       0       0       0       0
  8097 ;;      Temps:          0       0       0       0       0       0       0       0       0       0       0       0       
      +0       0       0       0       0
  8098 ;;      Totals:         0       0       0       0       0       0       0       0       0       0       0       0       
      +0       0       0       0       0
  8099 ;;Total ram usage:        0 bytes
  8100 ;; Hardware stack levels used:    1
  8101 ;; Hardware stack levels required when called:    2
  8102 ;; This function calls:
  8103 ;;		_TMR3_CallBack
  8104 ;; This function is called by:
  8105 ;;		_INTERRUPT_InterruptManager
  8106 ;; This function uses a non-reentrant model
  8107 ;;
  8108                           
  8109                           	psect	text42
  8110  001E68                     __ptext42:
  8111                           	opt stack 0
  8112  001E68                     _TMR3_ISR:
  8113                           	opt stack 22
  8114                           
  8115                           ;tmr3.c: 162: static volatile unsigned int CountCallBack = 0;
  8116                           ;tmr3.c: 165: PIR2bits.TMR3IF = 0;
  8117                           
  8118                           ;incstack = 0
  8119  001E68  92A1               	bcf	4001,1,c	;volatile
  8120                           
  8121                           ;tmr3.c: 168: TMR3H = (timer3ReloadVal >> 8);
  8122  001E6A  C054  FFB3         	movff	_timer3ReloadVal+1,4019	;volatile
  8123                           
  8124                           ;tmr3.c: 169: TMR3L = (uint8_t) timer3ReloadVal;
  8125  001E6E  C053  FFB2         	movff	_timer3ReloadVal,4018	;volatile
  8126                           
  8127                           ;tmr3.c: 172: if (++CountCallBack >= 30)
  8128  001E72  4A20               	infsnz	TMR3_ISR@CountCallBack,f,c	;volatile
  8129  001E74  2A21               	incf	TMR3_ISR@CountCallBack+1,f,c	;volatile
  8130  001E76  5021               	movf	TMR3_ISR@CountCallBack+1,w,c	;volatile
  8131  001E78  E104               	bnz	i2u57_40
  8132  001E7A  0E1E               	movlw	30
  8133  001E7C  5C20               	subwf	TMR3_ISR@CountCallBack,w,c	;volatile
  8134  001E7E  A0D8               	btfss	status,0,c
  8135  001E80  0012               	return	
  8136  001E82                     i2u57_40:
  8137                           
  8138                           ;tmr3.c: 173: {
  8139                           ;tmr3.c: 175: TMR3_CallBack();
  8140  001E82  ECBD  F00F         	call	_TMR3_CallBack	;wreg free
  8141                           
  8142                           ;tmr3.c: 178: CountCallBack = 0;
  8143  001E86  6A20               	clrf	TMR3_ISR@CountCallBack,c	;volatile
  8144  001E88  6A21               	clrf	TMR3_ISR@CountCallBack+1,c	;volatile
  8145  001E8A  0012               	return		;funcret
  8146  001E8C                     __end_of_TMR3_ISR:
  8147                           	opt stack 0
  8148                           pclatu	equ	0xFFB
  8149                           pclath	equ	0xFFA
  8150                           intcon	equ	0xFF2
  8151                           intcon2	equ	0xFF1
  8152                           postinc0	equ	0xFEE
  8153                           wreg	equ	0xFE8
  8154                           fsr2h	equ	0xFDA
  8155                           fsr2l	equ	0xFD9
  8156                           status	equ	0xFD8
  8157                           
  8158 ;; *************** function _TMR3_CallBack *****************
  8159 ;; Defined at:
  8160 ;;		line 182 in file "mcc_generated_files/tmr3.c"
  8161 ;; Parameters:    Size  Location     Type
  8162 ;;		None
  8163 ;; Auto vars:     Size  Location     Type
  8164 ;;		None
  8165 ;; Return value:  Size  Location     Type
  8166 ;;                  1    wreg      void 
  8167 ;; Registers used:
  8168 ;;		wreg, status,2, status,0, pclat, tosl, cstack
  8169 ;; Tracked objects:
  8170 ;;		On entry : 0/0
  8171 ;;		On exit  : 0/0
  8172 ;;		Unchanged: 0/0
  8173 ;; Data sizes:     COMRAM   BANK0   BANK1   BANK2   BANK3   BANK4   BANK5   BANK6   BANK7   BANK8   BANK9  BANK10  BANK1
      +1  BANK12  BANK13  BANK14  BANK15
  8174 ;;      Params:         0       0       0       0       0       0       0       0       0       0       0       0       
      +0       0       0       0       0
  8175 ;;      Locals:         0       0       0       0       0       0       0       0       0       0       0       0       
      +0       0       0       0       0
  8176 ;;      Temps:          0       0       0       0       0       0       0       0       0       0       0       0       
      +0       0       0       0       0
  8177 ;;      Totals:         0       0       0       0       0       0       0       0       0       0       0       0       
      +0       0       0       0       0
  8178 ;;Total ram usage:        0 bytes
  8179 ;; Hardware stack levels used:    1
  8180 ;; Hardware stack levels required when called:    1
  8181 ;; This function calls:
  8182 ;;		Absolute function
  8183 ;;		_TMR3_DefaultInterruptHandler
  8184 ;; This function is called by:
  8185 ;;		_TMR3_ISR
  8186 ;; This function uses a non-reentrant model
  8187 ;;
  8188                           
  8189                           	psect	text43
  8190  001F7A                     __ptext43:
  8191                           	opt stack 0
  8192  001F7A                     _TMR3_CallBack:
  8193                           	opt stack 22
  8194                           
  8195                           ;tmr3.c: 185: if(TMR3_InterruptHandler)
  8196                           
  8197                           ;incstack = 0
  8198  001F7A  504F               	movf	_TMR3_InterruptHandler,w,c
  8199  001F7C  1050               	iorwf	_TMR3_InterruptHandler+1,w,c
  8200  001F7E  B4D8               	btfsc	status,2,c
  8201  001F80  0012               	return	
  8202                           
  8203                           ;tmr3.c: 186: {
  8204                           ;tmr3.c: 187: TMR3_InterruptHandler();
  8205  001F82  0005               	push	
  8206  001F84  6EFA               	movwf	pclath,c
  8207  001F86  504F               	movf	_TMR3_InterruptHandler,w,c
  8208  001F88  6EFD               	movwf	tosl,c
  8209  001F8A  5050               	movf	_TMR3_InterruptHandler+1,w,c
  8210  001F8C  6EFE               	movwf	tosh,c
  8211  001F8E  6AFF               	clrf	tosu,c
  8212  001F90  50FA               	movf	pclath,w,c
  8213  001F92  0012               	return		;indir
  8214  001F94                     __end_of_TMR3_CallBack:
  8215                           	opt stack 0
  8216                           tosu	equ	0xFFF
  8217                           tosh	equ	0xFFE
  8218                           tosl	equ	0xFFD
  8219                           pclatu	equ	0xFFB
  8220                           pclath	equ	0xFFA
  8221                           intcon	equ	0xFF2
  8222                           intcon2	equ	0xFF1
  8223                           postinc0	equ	0xFEE
  8224                           wreg	equ	0xFE8
  8225                           fsr2h	equ	0xFDA
  8226                           fsr2l	equ	0xFD9
  8227                           status	equ	0xFD8
  8228                           
  8229 ;; *************** function _TMR3_DefaultInterruptHandler *****************
  8230 ;; Defined at:
  8231 ;;		line 195 in file "mcc_generated_files/tmr3.c"
  8232 ;; Parameters:    Size  Location     Type
  8233 ;;		None
  8234 ;; Auto vars:     Size  Location     Type
  8235 ;;		None
  8236 ;; Return value:  Size  Location     Type
  8237 ;;                  1    wreg      void 
  8238 ;; Registers used:
  8239 ;;		None
  8240 ;; Tracked objects:
  8241 ;;		On entry : 0/0
  8242 ;;		On exit  : 0/0
  8243 ;;		Unchanged: 0/0
  8244 ;; Data sizes:     COMRAM   BANK0   BANK1   BANK2   BANK3   BANK4   BANK5   BANK6   BANK7   BANK8   BANK9  BANK10  BANK1
      +1  BANK12  BANK13  BANK14  BANK15
  8245 ;;      Params:         0       0       0       0       0       0       0       0       0       0       0       0       
      +0       0       0       0       0
  8246 ;;      Locals:         0       0       0       0       0       0       0       0       0       0       0       0       
      +0       0       0       0       0
  8247 ;;      Temps:          0       0       0       0       0       0       0       0       0       0       0       0       
      +0       0       0       0       0
  8248 ;;      Totals:         0       0       0       0       0       0       0       0       0       0       0       0       
      +0       0       0       0       0
  8249 ;;Total ram usage:        0 bytes
  8250 ;; Hardware stack levels used:    1
  8251 ;; This function calls:
  8252 ;;		Nothing
  8253 ;; This function is called by:
  8254 ;;		_TMR3_Initialize
  8255 ;;		_TMR3_CallBack
  8256 ;; This function uses a non-reentrant model
  8257 ;;
  8258                           
  8259                           	psect	text44
  8260  002060                     __ptext44:
  8261                           	opt stack 0
  8262  002060                     _TMR3_DefaultInterruptHandler:
  8263                           	opt stack 22
  8264                           
  8265                           ;incstack = 0
  8266  002060  0012               	return		;funcret
  8267  002062                     __end_of_TMR3_DefaultInterruptHandler:
  8268                           	opt stack 0
  8269                           tosu	equ	0xFFF
  8270                           tosh	equ	0xFFE
  8271                           tosl	equ	0xFFD
  8272                           pclatu	equ	0xFFB
  8273                           pclath	equ	0xFFA
  8274                           intcon	equ	0xFF2
  8275                           intcon2	equ	0xFF1
  8276                           postinc0	equ	0xFEE
  8277                           wreg	equ	0xFE8
  8278                           fsr2h	equ	0xFDA
  8279                           fsr2l	equ	0xFD9
  8280                           status	equ	0xFD8
  8281                           
  8282 ;; *************** function _I2C2_ISR *****************
  8283 ;; Defined at:
  8284 ;;		line 234 in file "mcc_generated_files/i2c2.c"
  8285 ;; Parameters:    Size  Location     Type
  8286 ;;		None
  8287 ;; Auto vars:     Size  Location     Type
  8288 ;;		None
  8289 ;; Return value:  Size  Location     Type
  8290 ;;                  1    wreg      void 
  8291 ;; Registers used:
  8292 ;;		wreg, fsr2l, fsr2h, status,2, status,0, cstack
  8293 ;; Tracked objects:
  8294 ;;		On entry : 0/0
  8295 ;;		On exit  : 0/0
  8296 ;;		Unchanged: 0/0
  8297 ;; Data sizes:     COMRAM   BANK0   BANK1   BANK2   BANK3   BANK4   BANK5   BANK6   BANK7   BANK8   BANK9  BANK10  BANK1
      +1  BANK12  BANK13  BANK14  BANK15
  8298 ;;      Params:         0       0       0       0       0       0       0       0       0       0       0       0       
      +0       0       0       0       0
  8299 ;;      Locals:         0       0       0       0       0       0       0       0       0       0       0       0       
      +0       0       0       0       0
  8300 ;;      Temps:          2       0       0       0       0       0       0       0       0       0       0       0       
      +0       0       0       0       0
  8301 ;;      Totals:         2       0       0       0       0       0       0       0       0       0       0       0       
      +0       0       0       0       0
  8302 ;;Total ram usage:        2 bytes
  8303 ;; Hardware stack levels used:    1
  8304 ;; Hardware stack levels required when called:    1
  8305 ;; This function calls:
  8306 ;;		_I2C2_FunctionComplete
  8307 ;;		_I2C2_Stop
  8308 ;; This function is called by:
  8309 ;;		_INTERRUPT_InterruptManager
  8310 ;; This function uses a non-reentrant model
  8311 ;;
  8312                           
  8313                           	psect	text45
  8314  00101C                     __ptext45:
  8315                           	opt stack 0
  8316  00101C                     _I2C2_ISR:
  8317                           	opt stack 23
  8318                           
  8319                           ;i2c2.c: 237: static uint8_t *pi2c_buf_ptr;
  8320                           ;i2c2.c: 238: static uint16_t i2c_address = 0;
  8321                           ;i2c2.c: 239: static uint8_t i2c_bytes_left = 0;
  8322                           ;i2c2.c: 240: static uint8_t i2c_10bit_address_restart = 0;
  8323                           ;i2c2.c: 242: PIR3bits.SSP2IF = 0;
  8324                           
  8325                           ;incstack = 0
  8326  00101C  9EA4               	bcf	4004,7,c	;volatile
  8327                           
  8328                           ;i2c2.c: 246: if(SSP2CON1bits.WCOL)
  8329  00101E  AE6C               	btfss	3948,7,c	;volatile
  8330  001020  D0C5               	goto	i2l2602
  8331                           
  8332                           ;i2c2.c: 247: {
  8333                           ;i2c2.c: 249: SSP2CON1bits.WCOL = 0;
  8334  001022  9E6C               	bcf	3948,7,c	;volatile
  8335                           
  8336                           ;i2c2.c: 250: i2c2_state = S_MASTER_IDLE;
  8337  001024  6A2E               	clrf	_i2c2_state,c
  8338                           
  8339                           ;i2c2.c: 251: *(p_i2c2_current->pTrFlag) = I2C2_MESSAGE_FAIL;
  8340  001026  EE20 F002          	lfsr	2,2
  8341  00102A  5022               	movf	_p_i2c2_current,w,c
  8342  00102C  26D9               	addwf	fsr2l,f,c
  8343  00102E  5023               	movf	_p_i2c2_current+1,w,c
  8344  001030  22DA               	addwfc	fsr2h,f,c
  8345  001032  50DF               	movf	indf2,w,c
  8346  001034  6ED9               	movwf	fsr2l,c
  8347  001036  6ADA               	clrf	fsr2h,c
  8348  001038  0E01               	movlw	1
  8349  00103A  6EDF               	movwf	indf2,c
  8350                           
  8351                           ;i2c2.c: 254: p_i2c2_current = (0);
  8352  00103C  6A22               	clrf	_p_i2c2_current,c
  8353  00103E  6A23               	clrf	_p_i2c2_current+1,c
  8354  001040  0012               	return	
  8355  001042                     i2l916:
  8356                           
  8357                           ;i2c2.c: 264: if(i2c2_object.trStatus.s.empty != 1)
  8358  001042  B21B               	btfsc	_i2c2_object+2,1,c
  8359  001044  0012               	return	
  8360                           
  8361                           ;i2c2.c: 265: {
  8362                           ;i2c2.c: 267: p_i2c2_current = i2c2_object.pTrHead;
  8363  001046  C01A  F022         	movff	_i2c2_object+1,_p_i2c2_current
  8364  00104A  6A23               	clrf	_p_i2c2_current+1,c
  8365                           
  8366                           ;i2c2.c: 268: i2c2_trb_count = i2c2_object.pTrHead->count;
  8367  00104C  501A               	movf	_i2c2_object+1,w,c
  8368  00104E  6ED9               	movwf	fsr2l,c
  8369  001050  6ADA               	clrf	fsr2h,c
  8370  001052  50DF               	movf	indf2,w,c
  8371  001054  6E2F               	movwf	_i2c2_trb_count,c
  8372                           
  8373                           ;i2c2.c: 269: p_i2c2_trb_current = i2c2_object.pTrHead->ptrb_list;
  8374  001056  501A               	movf	_i2c2_object+1,w,c
  8375  001058  6ED9               	movwf	fsr2l,c
  8376  00105A  6ADA               	clrf	fsr2h,c
  8377  00105C  2AD9               	incf	fsr2l,f,c
  8378  00105E  50DF               	movf	indf2,w,c
  8379  001060  6E45               	movwf	??_I2C2_ISR& (0+255),c
  8380  001062  C045  F024         	movff	??_I2C2_ISR,_p_i2c2_trb_current
  8381  001066  6A25               	clrf	_p_i2c2_trb_current+1,c
  8382                           
  8383                           ;i2c2.c: 271: i2c2_object.pTrHead++;
  8384  001068  0E05               	movlw	5
  8385  00106A  261A               	addwf	_i2c2_object+1,f,c
  8386                           
  8387                           ;i2c2.c: 274: if(i2c2_object.pTrHead == (i2c2_tr_queue + 1))
  8388  00106C  0E3D               	movlw	_i2c2_tr_queue& (0+255)
  8389  00106E  0F05               	addlw	5
  8390  001070  621A               	cpfseq	_i2c2_object+1,c
  8391  001072  D002               	goto	i2l2492
  8392                           
  8393                           ;i2c2.c: 275: {
  8394                           ;i2c2.c: 277: i2c2_object.pTrHead = i2c2_tr_queue;
  8395  001074  0E3D               	movlw	low _i2c2_tr_queue
  8396  001076  6E1A               	movwf	_i2c2_object+1,c
  8397  001078                     i2l2492:
  8398                           
  8399                           ;i2c2.c: 278: }
  8400                           ;i2c2.c: 282: i2c2_object.trStatus.s.full = 0;
  8401  001078  901B               	bcf	_i2c2_object+2,0,c
  8402                           
  8403                           ;i2c2.c: 285: if(i2c2_object.pTrHead == i2c2_object.pTrTail)
  8404  00107A  5019               	movf	_i2c2_object,w,c
  8405  00107C  181A               	xorwf	_i2c2_object+1,w,c
  8406  00107E  E101               	bnz	i2l919
  8407                           
  8408                           ;i2c2.c: 286: {
  8409                           ;i2c2.c: 288: i2c2_object.trStatus.s.empty = 1;
  8410  001080  821B               	bsf	_i2c2_object+2,1,c
  8411  001082                     i2l919:
  8412                           
  8413                           ;i2c2.c: 289: }
  8414                           ;i2c2.c: 292: SSP2CON2bits.SEN = 1;
  8415  001082  806B               	bsf	3947,0,c	;volatile
  8416  001084                     i2l2496:
  8417                           
  8418                           ;i2c2.c: 295: i2c2_state = S_MASTER_SEND_ADDR;
  8419  001084  0E02               	movlw	2
  8420  001086  6E2E               	movwf	_i2c2_state,c
  8421  001088  0C02               	retlw	2
  8422  00108A                     i2l922:
  8423                           
  8424                           ;i2c2.c: 314: if(SSP2CON2bits.ACKSTAT)
  8425  00108A  AC6B               	btfss	3947,6,c	;volatile
  8426  00108C  D004               	goto	i2l2504
  8427  00108E  D014               	goto	i2l2512
  8428  001090                     i2l2502:
  8429                           
  8430                           ;i2c2.c: 317: I2C2_Stop(I2C2_MESSAGE_ADDRESS_NO_ACK);
  8431  001090  0E04               	movlw	4
  8432  001092  EFA7  F00E         	goto	_I2C2_Stop
  8433  001096                     i2l2504:
  8434                           
  8435                           ;i2c2.c: 319: else
  8436                           ;i2c2.c: 320: {
  8437                           ;i2c2.c: 322: SSP2BUF = (i2c_address >> 1) & 0x00FF;
  8438  001096  90D8               	bcf	status,0,c
  8439  001098  3043               	rrcf	I2C2_ISR@i2c_address+1,w,c
  8440  00109A  6E46               	movwf	(??_I2C2_ISR+1)& (0+255),c
  8441  00109C  3042               	rrcf	I2C2_ISR@i2c_address,w,c
  8442  00109E  6E45               	movwf	??_I2C2_ISR& (0+255),c
  8443  0010A0  5045               	movf	??_I2C2_ISR,w,c
  8444  0010A2  6E6F               	movwf	3951,c	;volatile
  8445                           
  8446                           ;i2c2.c: 325: if(i2c_address & 0x01)
  8447  0010A4  A042               	btfss	I2C2_ISR@i2c_address,0,c
  8448  0010A6  D003               	goto	i2l2510
  8449                           
  8450                           ;i2c2.c: 326: {
  8451                           ;i2c2.c: 329: i2c2_state = S_MASTER_10BIT_RESTART;
  8452  0010A8  0E0B               	movlw	11
  8453  0010AA  6E2E               	movwf	_i2c2_state,c
  8454                           
  8455                           ;i2c2.c: 330: }
  8456  0010AC  0C0B               	retlw	11
  8457  0010AE                     i2l2510:
  8458                           
  8459                           ;i2c2.c: 331: else
  8460                           ;i2c2.c: 332: {
  8461                           ;i2c2.c: 334: i2c2_state = S_MASTER_SEND_DATA;
  8462  0010AE  0E03               	movlw	3
  8463  0010B0  6E2E               	movwf	_i2c2_state,c
  8464  0010B2  0C03               	retlw	3
  8465  0010B4                     i2l927:
  8466                           
  8467                           ;i2c2.c: 342: if(SSP2CON2bits.ACKSTAT)
  8468  0010B4  AC6B               	btfss	3947,6,c	;volatile
  8469  0010B6  D002               	goto	i2l928
  8470  0010B8                     i2l2512:
  8471                           
  8472                           ;i2c2.c: 343: {
  8473                           ;i2c2.c: 344: i2c2_object.i2cErrors++;
  8474  0010B8  2A1D               	incf	_i2c2_object+4,f,c
  8475  0010BA  D7EA               	goto	i2l2502
  8476  0010BC                     i2l928:
  8477                           
  8478                           ;i2c2.c: 347: else
  8479                           ;i2c2.c: 348: {
  8480                           ;i2c2.c: 351: SSP2CON2bits.RSEN = 1;
  8481  0010BC  826B               	bsf	3947,1,c	;volatile
  8482                           
  8483                           ;i2c2.c: 355: i2c_address = 0x00F0 | ((i2c_address >> 8) & 0x0006);
  8484  0010BE  5043               	movf	I2C2_ISR@i2c_address+1,w,c
  8485  0010C0  0B06               	andlw	6
  8486  0010C2  6E45               	movwf	??_I2C2_ISR& (0+255),c
  8487  0010C4  6A46               	clrf	(??_I2C2_ISR+1)& (0+255),c
  8488  0010C6  0EF0               	movlw	240
  8489  0010C8  1045               	iorwf	??_I2C2_ISR,w,c
  8490  0010CA  6E42               	movwf	I2C2_ISR@i2c_address,c
  8491  0010CC  5046               	movf	??_I2C2_ISR+1,w,c
  8492  0010CE  6E43               	movwf	I2C2_ISR@i2c_address+1,c
  8493                           
  8494                           ;i2c2.c: 358: i2c_address |= 0x0001;
  8495  0010D0  8042               	bsf	I2C2_ISR@i2c_address,0,c
  8496                           
  8497                           ;i2c2.c: 361: i2c_10bit_address_restart = 1;
  8498  0010D2  0E01               	movlw	1
  8499  0010D4  6E26               	movwf	I2C2_ISR@i2c_10bit_address_restart,c
  8500  0010D6  D7D6               	goto	i2l2496
  8501  0010D8                     i2l2524:
  8502                           
  8503                           ;i2c2.c: 382: if(i2c_10bit_address_restart != 1)
  8504  0010D8  0426               	decf	I2C2_ISR@i2c_10bit_address_restart,w,c
  8505  0010DA  E01B               	bz	i2l932
  8506                           
  8507                           ;i2c2.c: 383: {
  8508                           ;i2c2.c: 385: i2c_address = p_i2c2_trb_current->address;
  8509  0010DC  C024  FFD9         	movff	_p_i2c2_trb_current,fsr2l
  8510  0010E0  C025  FFDA         	movff	_p_i2c2_trb_current+1,fsr2h
  8511  0010E4  CFDE F042          	movff	postinc2,I2C2_ISR@i2c_address
  8512  0010E8  CFDD F043          	movff	postdec2,I2C2_ISR@i2c_address+1
  8513                           
  8514                           ;i2c2.c: 386: pi2c_buf_ptr = p_i2c2_trb_current->pbuffer;
  8515  0010EC  EE20 F003          	lfsr	2,3
  8516  0010F0  5024               	movf	_p_i2c2_trb_current,w,c
  8517  0010F2  26D9               	addwf	fsr2l,f,c
  8518  0010F4  5025               	movf	_p_i2c2_trb_current+1,w,c
  8519  0010F6  22DA               	addwfc	fsr2h,f,c
  8520  0010F8  50DF               	movf	indf2,w,c
  8521  0010FA  6E45               	movwf	??_I2C2_ISR& (0+255),c
  8522  0010FC  C045  F01E         	movff	??_I2C2_ISR,I2C2_ISR@pi2c_buf_ptr
  8523  001100  6A1F               	clrf	I2C2_ISR@pi2c_buf_ptr+1,c
  8524                           
  8525                           ;i2c2.c: 387: i2c_bytes_left = p_i2c2_trb_current->length;
  8526  001102  EE20 F002          	lfsr	2,2
  8527  001106  5024               	movf	_p_i2c2_trb_current,w,c
  8528  001108  26D9               	addwf	fsr2l,f,c
  8529  00110A  5025               	movf	_p_i2c2_trb_current+1,w,c
  8530  00110C  22DA               	addwfc	fsr2h,f,c
  8531  00110E  50DF               	movf	indf2,w,c
  8532  001110  6E27               	movwf	I2C2_ISR@i2c_bytes_left,c
  8533  001112                     i2l932:
  8534                           
  8535                           ;i2c2.c: 410: else
  8536                           ;i2c2.c: 411: {
  8537                           ;i2c2.c: 413: SSP2BUF = i2c_address;
  8538  001112  C042  FF6F         	movff	I2C2_ISR@i2c_address,3951	;volatile
  8539                           
  8540                           ;i2c2.c: 414: if(i2c_address & 0x01)
  8541  001116  A042               	btfss	I2C2_ISR@i2c_address,0,c
  8542  001118  D7CA               	goto	i2l2510
  8543                           
  8544                           ;i2c2.c: 415: {
  8545                           ;i2c2.c: 417: i2c2_state = S_MASTER_ACK_ADDR;
  8546  00111A  0E05               	movlw	5
  8547  00111C  6E2E               	movwf	_i2c2_state,c
  8548                           
  8549                           ;i2c2.c: 418: }
  8550  00111E  0C05               	retlw	5
  8551  001120                     i2l938:
  8552                           
  8553                           ;i2c2.c: 430: if(SSP2CON2bits.ACKSTAT)
  8554  001120  AC6B               	btfss	3947,6,c	;volatile
  8555  001122  D005               	goto	i2l2554
  8556                           
  8557                           ;i2c2.c: 431: {
  8558                           ;i2c2.c: 433: i2c2_object.i2cErrors++;
  8559  001124  2A1D               	incf	_i2c2_object+4,f,c
  8560                           
  8561                           ;i2c2.c: 436: SSP2CON2bits.ACKSTAT = 0;
  8562  001126  9C6B               	bcf	3947,6,c	;volatile
  8563                           
  8564                           ;i2c2.c: 439: I2C2_Stop(I2C2_DATA_NO_ACK);
  8565  001128  0E05               	movlw	5
  8566  00112A  EFA7  F00E         	goto	_I2C2_Stop
  8567  00112E                     i2l2554:
  8568                           
  8569                           ;i2c2.c: 442: else
  8570                           ;i2c2.c: 443: {
  8571                           ;i2c2.c: 445: if(i2c_bytes_left-- == 0U)
  8572  00112E  0627               	decf	I2C2_ISR@i2c_bytes_left,f,c
  8573  001130  2827               	incf	I2C2_ISR@i2c_bytes_left,w,c
  8574  001132  E109               	bnz	i2l2564
  8575                           
  8576                           ;i2c2.c: 446: {
  8577                           ;i2c2.c: 450: p_i2c2_trb_current++;
  8578  001134  0E06               	movlw	6
  8579  001136  2624               	addwf	_p_i2c2_trb_current,f,c
  8580  001138  0E00               	movlw	0
  8581  00113A  2225               	addwfc	_p_i2c2_trb_current+1,f,c
  8582                           
  8583                           ;i2c2.c: 453: if(--i2c2_trb_count == 0)
  8584  00113C  2E2F               	decfsz	_i2c2_trb_count,f,c
  8585  00113E  D001               	goto	i2l942
  8586  001140  D02E               	goto	i2l2594
  8587  001142                     i2l942:
  8588                           
  8589                           ;i2c2.c: 457: else
  8590                           ;i2c2.c: 458: {
  8591                           ;i2c2.c: 465: SSP2CON2bits.RSEN = 1;
  8592  001142  826B               	bsf	3947,1,c	;volatile
  8593  001144  D79F               	goto	i2l2496
  8594  001146                     i2l2564:
  8595                           
  8596                           ;i2c2.c: 472: else
  8597                           ;i2c2.c: 473: {
  8598                           ;i2c2.c: 475: SSP2BUF = *pi2c_buf_ptr++;
  8599  001146  C01E  FFD9         	movff	I2C2_ISR@pi2c_buf_ptr,fsr2l
  8600  00114A  C01F  FFDA         	movff	I2C2_ISR@pi2c_buf_ptr+1,fsr2h
  8601  00114E  50DF               	movf	indf2,w,c
  8602  001150  6E6F               	movwf	3951,c	;volatile
  8603  001152  4A1E               	infsnz	I2C2_ISR@pi2c_buf_ptr,f,c
  8604  001154  2A1F               	incf	I2C2_ISR@pi2c_buf_ptr+1,f,c
  8605  001156  0012               	return	
  8606  001158                     i2l945:
  8607                           
  8608                           ;i2c2.c: 483: if(SSP2CON2bits.ACKSTAT)
  8609  001158  AC6B               	btfss	3947,6,c	;volatile
  8610  00115A  D006               	goto	i2l946
  8611                           
  8612                           ;i2c2.c: 484: {
  8613                           ;i2c2.c: 487: i2c2_object.i2cErrors++;
  8614  00115C  2A1D               	incf	_i2c2_object+4,f,c
  8615                           
  8616                           ;i2c2.c: 490: I2C2_Stop(I2C2_MESSAGE_ADDRESS_NO_ACK);
  8617  00115E  0E04               	movlw	4
  8618  001160  ECA7  F00E         	call	_I2C2_Stop
  8619                           
  8620                           ;i2c2.c: 493: SSP2CON2bits.ACKSTAT = 0;
  8621  001164  9C6B               	bcf	3947,6,c	;volatile
  8622                           
  8623                           ;i2c2.c: 494: }
  8624  001166  0012               	return	
  8625  001168                     i2l946:
  8626                           
  8627                           ;i2c2.c: 495: else
  8628                           ;i2c2.c: 496: {
  8629                           ;i2c2.c: 497: SSP2CON2bits.RCEN = 1;
  8630  001168  866B               	bsf	3947,3,c	;volatile
  8631                           
  8632                           ;i2c2.c: 498: i2c2_state = S_MASTER_ACK_RCV_DATA;
  8633  00116A  0E08               	movlw	8
  8634  00116C  6E2E               	movwf	_i2c2_state,c
  8635  00116E  0C08               	retlw	8
  8636  001170                     i2l2576:
  8637                           
  8638                           ;i2c2.c: 507: i2c2_state = S_MASTER_ACK_RCV_DATA;
  8639  001170  0E08               	movlw	8
  8640  001172  6E2E               	movwf	_i2c2_state,c
  8641                           
  8642                           ;i2c2.c: 510: SSP2CON2bits.RCEN = 1;
  8643  001174  866B               	bsf	3947,3,c	;volatile
  8644                           
  8645                           ;i2c2.c: 512: break;
  8646  001176  0C08               	retlw	8
  8647  001178                     i2l2580:
  8648                           
  8649                           ;i2c2.c: 517: *pi2c_buf_ptr++ = SSP2BUF;
  8650  001178  C01E  FFD9         	movff	I2C2_ISR@pi2c_buf_ptr,fsr2l
  8651  00117C  C01F  FFDA         	movff	I2C2_ISR@pi2c_buf_ptr+1,fsr2h
  8652  001180  CF6F FFDF          	movff	3951,indf2	;volatile
  8653  001184  4A1E               	infsnz	I2C2_ISR@pi2c_buf_ptr,f,c
  8654  001186  2A1F               	incf	I2C2_ISR@pi2c_buf_ptr+1,f,c
  8655                           
  8656                           ;i2c2.c: 520: if(--i2c_bytes_left)
  8657  001188  0627               	decf	I2C2_ISR@i2c_bytes_left,f,c
  8658  00118A  E004               	bz	i2l950
  8659                           
  8660                           ;i2c2.c: 521: {
  8661                           ;i2c2.c: 527: SSP2CON2bits.ACKDT = 0;
  8662  00118C  9A6B               	bcf	3947,5,c	;volatile
  8663                           
  8664                           ;i2c2.c: 530: i2c2_state = S_MASTER_RCV_DATA;
  8665  00118E  0E06               	movlw	6
  8666  001190  6E2E               	movwf	_i2c2_state,c
  8667                           
  8668                           ;i2c2.c: 531: }
  8669  001192  D003               	goto	i2l2592
  8670  001194                     i2l950:
  8671                           
  8672                           ;i2c2.c: 532: else
  8673                           ;i2c2.c: 533: {
  8674                           ;i2c2.c: 537: SSP2CON2bits.ACKDT = 1;
  8675  001194  8A6B               	bsf	3947,5,c	;volatile
  8676                           
  8677                           ;i2c2.c: 539: I2C2_FunctionComplete();
  8678  001196  ECCA  F00F         	call	_I2C2_FunctionComplete	;wreg free
  8679  00119A                     i2l2592:
  8680                           
  8681                           ;i2c2.c: 540: }
  8682                           ;i2c2.c: 543: SSP2CON2bits.ACKEN = 1;
  8683  00119A  886B               	bsf	3947,4,c	;volatile
  8684                           
  8685                           ;i2c2.c: 544: break;
  8686  00119C  0012               	return	
  8687  00119E                     i2l2594:
  8688                           
  8689                           ;i2c2.c: 547: case S_MASTER_SEND_STOP:
  8690                           ;i2c2.c: 550: I2C2_Stop(I2C2_MESSAGE_COMPLETE);
  8691  00119E  0E00               	movlw	0
  8692  0011A0  EFA7  F00E         	goto	_I2C2_Stop
  8693  0011A4                     i2l2596:
  8694                           
  8695                           ;i2c2.c: 557: i2c2_object.i2cErrors++;
  8696  0011A4  2A1D               	incf	_i2c2_object+4,f,c
  8697                           
  8698                           ;i2c2.c: 558: I2C2_Stop(I2C2_LOST_STATE);
  8699  0011A6  0E06               	movlw	6
  8700  0011A8  EFA7  F00E         	goto	_I2C2_Stop
  8701  0011AC                     i2l2602:
  8702  0011AC  502E               	movf	_i2c2_state,w,c
  8703                           
  8704                           ; Switch size 1, requested type "speed"
  8705                           ; Number of cases is 11, Range of values is 0 to 11
  8706                           ; switch strategies available:
  8707                           ; Name         Instructions Cycles
  8708                           ; simple_byte           34    18 (average)
  8709                           ;	Chosen strategy is simple_byte
  8710  0011AE  E101 D748          	bz	i2l916
  8711  0011B2  0A01               	xorlw	1	; case 1
  8712  0011B4  E0C6               	bz	i2l942
  8713  0011B6  0A03               	xorlw	3	; case 2
  8714  0011B8  E08F               	bz	i2l2524
  8715  0011BA  0A01               	xorlw	1	; case 3
  8716  0011BC  E0B1               	bz	i2l938
  8717  0011BE  0A07               	xorlw	7	; case 4
  8718  0011C0  E0EE               	bz	i2l2594
  8719  0011C2  0A01               	xorlw	1	; case 5
  8720  0011C4  E0C9               	bz	i2l945
  8721  0011C6  0A03               	xorlw	3	; case 6
  8722  0011C8  E0D3               	bz	i2l2576
  8723  0011CA  0A01               	xorlw	1	; case 7
  8724  0011CC  E0E8               	bz	i2l2594
  8725  0011CE  0A0F               	xorlw	15	; case 8
  8726  0011D0  E0D3               	bz	i2l2580
  8727  0011D2  0A02               	xorlw	2	; case 10
  8728  0011D4  E101 D759          	bz	i2l922
  8729  0011D8  0A01               	xorlw	1	; case 11
  8730  0011DA  E101 D76B          	bz	i2l927
  8731  0011DE  D7E2               	goto	i2l2596
  8732  0011E0                     __end_of_I2C2_ISR:
  8733                           	opt stack 0
  8734                           tosu	equ	0xFFF
  8735                           tosh	equ	0xFFE
  8736                           tosl	equ	0xFFD
  8737                           pclatu	equ	0xFFB
  8738                           pclath	equ	0xFFA
  8739                           intcon	equ	0xFF2
  8740                           intcon2	equ	0xFF1
  8741                           postinc0	equ	0xFEE
  8742                           wreg	equ	0xFE8
  8743                           indf2	equ	0xFDF
  8744                           postinc2	equ	0xFDE
  8745                           postdec2	equ	0xFDD
  8746                           fsr2h	equ	0xFDA
  8747                           fsr2l	equ	0xFD9
  8748                           status	equ	0xFD8
  8749                           
  8750 ;; *************** function _I2C2_Stop *****************
  8751 ;; Defined at:
  8752 ;;		line 582 in file "mcc_generated_files/i2c2.c"
  8753 ;; Parameters:    Size  Location     Type
  8754 ;;  completion_c    1    wreg     enum E7395
  8755 ;; Auto vars:     Size  Location     Type
  8756 ;;  completion_c    1    0[COMRAM] enum E7395
  8757 ;; Return value:  Size  Location     Type
  8758 ;;                  1    wreg      void 
  8759 ;; Registers used:
  8760 ;;		wreg, fsr2l, fsr2h, status,2, status,0
  8761 ;; Tracked objects:
  8762 ;;		On entry : 0/0
  8763 ;;		On exit  : 0/0
  8764 ;;		Unchanged: 0/0
  8765 ;; Data sizes:     COMRAM   BANK0   BANK1   BANK2   BANK3   BANK4   BANK5   BANK6   BANK7   BANK8   BANK9  BANK10  BANK1
      +1  BANK12  BANK13  BANK14  BANK15
  8766 ;;      Params:         0       0       0       0       0       0       0       0       0       0       0       0       
      +0       0       0       0       0
  8767 ;;      Locals:         1       0       0       0       0       0       0       0       0       0       0       0       
      +0       0       0       0       0
  8768 ;;      Temps:          0       0       0       0       0       0       0       0       0       0       0       0       
      +0       0       0       0       0
  8769 ;;      Totals:         1       0       0       0       0       0       0       0       0       0       0       0       
      +0       0       0       0       0
  8770 ;;Total ram usage:        1 bytes
  8771 ;; Hardware stack levels used:    1
  8772 ;; This function calls:
  8773 ;;		Nothing
  8774 ;; This function is called by:
  8775 ;;		_I2C2_ISR
  8776 ;; This function uses a non-reentrant model
  8777 ;;
  8778                           
  8779                           	psect	text46
  8780  001D4E                     __ptext46:
  8781                           	opt stack 0
  8782  001D4E                     _I2C2_Stop:
  8783                           	opt stack 23
  8784                           
  8785                           ;incstack = 0
  8786                           ;I2C2_Stop@completion_code stored from wreg
  8787  001D4E  6E44               	movwf	I2C2_Stop@completion_code,c
  8788                           
  8789                           ;i2c2.c: 585: SSP2CON2bits.PEN = 1;
  8790  001D50  846B               	bsf	3947,2,c	;volatile
  8791                           
  8792                           ;i2c2.c: 588: if (p_i2c2_current->pTrFlag != (0))
  8793  001D52  EE20 F002          	lfsr	2,2
  8794  001D56  5022               	movf	_p_i2c2_current,w,c
  8795  001D58  26D9               	addwf	fsr2l,f,c
  8796  001D5A  5023               	movf	_p_i2c2_current+1,w,c
  8797  001D5C  22DA               	addwfc	fsr2h,f,c
  8798  001D5E  50DF               	movf	indf2,w,c
  8799  001D60  E00B               	bz	i2l2392
  8800                           
  8801                           ;i2c2.c: 589: {
  8802                           ;i2c2.c: 591: *(p_i2c2_current->pTrFlag) = completion_code;
  8803  001D62  EE20 F002          	lfsr	2,2
  8804  001D66  5022               	movf	_p_i2c2_current,w,c
  8805  001D68  26D9               	addwf	fsr2l,f,c
  8806  001D6A  5023               	movf	_p_i2c2_current+1,w,c
  8807  001D6C  22DA               	addwfc	fsr2h,f,c
  8808  001D6E  50DF               	movf	indf2,w,c
  8809  001D70  6ED9               	movwf	fsr2l,c
  8810  001D72  6ADA               	clrf	fsr2h,c
  8811  001D74  C044  FFDF         	movff	I2C2_Stop@completion_code,indf2
  8812  001D78                     i2l2392:
  8813                           
  8814                           ;i2c2.c: 592: }
  8815                           ;i2c2.c: 595: i2c2_state = S_MASTER_IDLE;
  8816  001D78  6A2E               	clrf	_i2c2_state,c
  8817  001D7A  0012               	return		;funcret
  8818  001D7C                     __end_of_I2C2_Stop:
  8819                           	opt stack 0
  8820                           tosu	equ	0xFFF
  8821                           tosh	equ	0xFFE
  8822                           tosl	equ	0xFFD
  8823                           pclatu	equ	0xFFB
  8824                           pclath	equ	0xFFA
  8825                           intcon	equ	0xFF2
  8826                           intcon2	equ	0xFF1
  8827                           postinc0	equ	0xFEE
  8828                           wreg	equ	0xFE8
  8829                           indf2	equ	0xFDF
  8830                           postinc2	equ	0xFDE
  8831                           postdec2	equ	0xFDD
  8832                           fsr2h	equ	0xFDA
  8833                           fsr2l	equ	0xFD9
  8834                           status	equ	0xFD8
  8835                           
  8836 ;; *************** function _I2C2_FunctionComplete *****************
  8837 ;; Defined at:
  8838 ;;		line 564 in file "mcc_generated_files/i2c2.c"
  8839 ;; Parameters:    Size  Location     Type
  8840 ;;		None
  8841 ;; Auto vars:     Size  Location     Type
  8842 ;;		None
  8843 ;; Return value:  Size  Location     Type
  8844 ;;                  1    wreg      void 
  8845 ;; Registers used:
  8846 ;;		wreg, status,2, status,0
  8847 ;; Tracked objects:
  8848 ;;		On entry : 0/0
  8849 ;;		On exit  : 0/0
  8850 ;;		Unchanged: 0/0
  8851 ;; Data sizes:     COMRAM   BANK0   BANK1   BANK2   BANK3   BANK4   BANK5   BANK6   BANK7   BANK8   BANK9  BANK10  BANK1
      +1  BANK12  BANK13  BANK14  BANK15
  8852 ;;      Params:         0       0       0       0       0       0       0       0       0       0       0       0       
      +0       0       0       0       0
  8853 ;;      Locals:         0       0       0       0       0       0       0       0       0       0       0       0       
      +0       0       0       0       0
  8854 ;;      Temps:          0       0       0       0       0       0       0       0       0       0       0       0       
      +0       0       0       0       0
  8855 ;;      Totals:         0       0       0       0       0       0       0       0       0       0       0       0       
      +0       0       0       0       0
  8856 ;;Total ram usage:        0 bytes
  8857 ;; Hardware stack levels used:    1
  8858 ;; This function calls:
  8859 ;;		Nothing
  8860 ;; This function is called by:
  8861 ;;		_I2C2_ISR
  8862 ;; This function uses a non-reentrant model
  8863 ;;
  8864                           
  8865                           	psect	text47
  8866  001F94                     __ptext47:
  8867                           	opt stack 0
  8868  001F94                     _I2C2_FunctionComplete:
  8869                           	opt stack 23
  8870                           
  8871                           ;i2c2.c: 568: p_i2c2_trb_current++;
  8872                           
  8873                           ;incstack = 0
  8874  001F94  0E06               	movlw	6
  8875  001F96  2624               	addwf	_p_i2c2_trb_current,f,c
  8876  001F98  0E00               	movlw	0
  8877  001F9A  2225               	addwfc	_p_i2c2_trb_current+1,f,c
  8878                           
  8879                           ;i2c2.c: 571: if(--i2c2_trb_count == 0)
  8880  001F9C  2E2F               	decfsz	_i2c2_trb_count,f,c
  8881  001F9E  D003               	goto	i2l2400
  8882                           
  8883                           ;i2c2.c: 572: {
  8884                           ;i2c2.c: 573: i2c2_state = S_MASTER_SEND_STOP;
  8885  001FA0  0E04               	movlw	4
  8886  001FA2  6E2E               	movwf	_i2c2_state,c
  8887                           
  8888                           ;i2c2.c: 574: }
  8889  001FA4  0C04               	retlw	4
  8890  001FA6                     i2l2400:
  8891                           
  8892                           ;i2c2.c: 575: else
  8893                           ;i2c2.c: 576: {
  8894                           ;i2c2.c: 577: i2c2_state = S_MASTER_RESTART;
  8895  001FA6  0E01               	movlw	1
  8896  001FA8  6E2E               	movwf	_i2c2_state,c
  8897  001FAA  0C01               	retlw	1	;funcret
  8898  001FAC                     __end_of_I2C2_FunctionComplete:
  8899                           	opt stack 0
  8900                           tosu	equ	0xFFF
  8901                           tosh	equ	0xFFE
  8902                           tosl	equ	0xFFD
  8903                           pclatu	equ	0xFFB
  8904                           pclath	equ	0xFFA
  8905                           intcon	equ	0xFF2
  8906                           intcon2	equ	0xFF1
  8907                           postinc0	equ	0xFEE
  8908                           wreg	equ	0xFE8
  8909                           indf2	equ	0xFDF
  8910                           postinc2	equ	0xFDE
  8911                           postdec2	equ	0xFDD
  8912                           fsr2h	equ	0xFDA
  8913                           fsr2l	equ	0xFD9
  8914                           status	equ	0xFD8
  8915                           
  8916 ;; *************** function _I2C2_BusCollisionISR *****************
  8917 ;; Defined at:
  8918 ;;		line 729 in file "mcc_generated_files/i2c2.c"
  8919 ;; Parameters:    Size  Location     Type
  8920 ;;		None
  8921 ;; Auto vars:     Size  Location     Type
  8922 ;;		None
  8923 ;; Return value:  Size  Location     Type
  8924 ;;                  1    wreg      void 
  8925 ;; Registers used:
  8926 ;;		None
  8927 ;; Tracked objects:
  8928 ;;		On entry : 0/0
  8929 ;;		On exit  : 0/0
  8930 ;;		Unchanged: 0/0
  8931 ;; Data sizes:     COMRAM   BANK0   BANK1   BANK2   BANK3   BANK4   BANK5   BANK6   BANK7   BANK8   BANK9  BANK10  BANK1
      +1  BANK12  BANK13  BANK14  BANK15
  8932 ;;      Params:         0       0       0       0       0       0       0       0       0       0       0       0       
      +0       0       0       0       0
  8933 ;;      Locals:         0       0       0       0       0       0       0       0       0       0       0       0       
      +0       0       0       0       0
  8934 ;;      Temps:          0       0       0       0       0       0       0       0       0       0       0       0       
      +0       0       0       0       0
  8935 ;;      Totals:         0       0       0       0       0       0       0       0       0       0       0       0       
      +0       0       0       0       0
  8936 ;;Total ram usage:        0 bytes
  8937 ;; Hardware stack levels used:    1
  8938 ;; This function calls:
  8939 ;;		Nothing
  8940 ;; This function is called by:
  8941 ;;		_INTERRUPT_InterruptManager
  8942 ;; This function uses a non-reentrant model
  8943 ;;
  8944                           
  8945                           	psect	text48
  8946  002062                     __ptext48:
  8947                           	opt stack 0
  8948  002062                     _I2C2_BusCollisionISR:
  8949                           	opt stack 24
  8950                           
  8951                           ;incstack = 0
  8952  002062  0012               	return		;funcret
  8953  002064                     __end_of_I2C2_BusCollisionISR:
  8954                           	opt stack 0
  8955                           tosu	equ	0xFFF
  8956                           tosh	equ	0xFFE
  8957                           tosl	equ	0xFFD
  8958                           pclatu	equ	0xFFB
  8959                           pclath	equ	0xFFA
  8960                           intcon	equ	0xFF2
  8961                           intcon2	equ	0xFF1
  8962                           postinc0	equ	0xFEE
  8963                           wreg	equ	0xFE8
  8964                           indf2	equ	0xFDF
  8965                           postinc2	equ	0xFDE
  8966                           postdec2	equ	0xFDD
  8967                           fsr2h	equ	0xFDA
  8968                           fsr2l	equ	0xFD9
  8969                           status	equ	0xFD8
  8970                           
  8971 ;; *************** function _EUSART2_Transmit_ISR *****************
  8972 ;; Defined at:
  8973 ;;		line 157 in file "mcc_generated_files/eusart2.c"
  8974 ;; Parameters:    Size  Location     Type
  8975 ;;		None
  8976 ;; Auto vars:     Size  Location     Type
  8977 ;;		None
  8978 ;; Return value:  Size  Location     Type
  8979 ;;                  1    wreg      void 
  8980 ;; Registers used:
  8981 ;;		wreg, fsr2l, fsr2h, status,2, status,0
  8982 ;; Tracked objects:
  8983 ;;		On entry : 0/0
  8984 ;;		On exit  : 0/0
  8985 ;;		Unchanged: 0/0
  8986 ;; Data sizes:     COMRAM   BANK0   BANK1   BANK2   BANK3   BANK4   BANK5   BANK6   BANK7   BANK8   BANK9  BANK10  BANK1
      +1  BANK12  BANK13  BANK14  BANK15
  8987 ;;      Params:         0       0       0       0       0       0       0       0       0       0       0       0       
      +0       0       0       0       0
  8988 ;;      Locals:         0       0       0       0       0       0       0       0       0       0       0       0       
      +0       0       0       0       0
  8989 ;;      Temps:          0       0       0       0       0       0       0       0       0       0       0       0       
      +0       0       0       0       0
  8990 ;;      Totals:         0       0       0       0       0       0       0       0       0       0       0       0       
      +0       0       0       0       0
  8991 ;;Total ram usage:        0 bytes
  8992 ;; Hardware stack levels used:    1
  8993 ;; This function calls:
  8994 ;;		Nothing
  8995 ;; This function is called by:
  8996 ;;		_INTERRUPT_InterruptManager
  8997 ;; This function uses a non-reentrant model
  8998 ;;
  8999                           
  9000                           	psect	text49
  9001  001E8C                     __ptext49:
  9002                           	opt stack 0
  9003  001E8C                     _EUSART2_Transmit_ISR:
  9004                           	opt stack 24
  9005                           
  9006                           ;eusart2.c: 161: if(sizeof(eusart2TxBuffer) > eusart2TxBufferRemaining)
  9007                           
  9008                           ;incstack = 0
  9009  001E8C  0E08               	movlw	8
  9010  001E8E  6056               	cpfslt	_eusart2TxBufferRemaining,c
  9011  001E90  D00D               	goto	i2l632
  9012                           
  9013                           ;eusart2.c: 162: {
  9014                           ;eusart2.c: 163: TXREG2 = eusart2TxBuffer[eusart2TxTail++];
  9015  001E92  502D               	movf	_eusart2TxTail,w,c
  9016  001E94  0F11               	addlw	low _eusart2TxBuffer
  9017  001E96  6ED9               	movwf	fsr2l,c
  9018  001E98  6ADA               	clrf	fsr2h,c
  9019  001E9A  50DF               	movf	indf2,w,c
  9020  001E9C  6E73               	movwf	3955,c	;volatile
  9021  001E9E  2A2D               	incf	_eusart2TxTail,f,c
  9022                           
  9023                           ;eusart2.c: 164: if(sizeof(eusart2TxBuffer) <= eusart2TxTail)
  9024  001EA0  0E07               	movlw	7
  9025  001EA2  642D               	cpfsgt	_eusart2TxTail,c
  9026  001EA4  D001               	goto	i2l2614
  9027                           
  9028                           ;eusart2.c: 165: {
  9029                           ;eusart2.c: 166: eusart2TxTail = 0;
  9030  001EA6  6A2D               	clrf	_eusart2TxTail,c
  9031  001EA8                     i2l2614:
  9032                           
  9033                           ;eusart2.c: 167: }
  9034                           ;eusart2.c: 168: eusart2TxBufferRemaining++;
  9035  001EA8  2A56               	incf	_eusart2TxBufferRemaining,f,c	;volatile
  9036                           
  9037                           ;eusart2.c: 169: }
  9038  001EAA  0012               	return	
  9039  001EAC                     i2l632:
  9040                           
  9041                           ;eusart2.c: 170: else
  9042                           ;eusart2.c: 171: {
  9043                           ;eusart2.c: 172: PIE3bits.TX2IE = 0;
  9044  001EAC  98A3               	bcf	4003,4,c	;volatile
  9045  001EAE  0012               	return		;funcret
  9046  001EB0                     __end_of_EUSART2_Transmit_ISR:
  9047                           	opt stack 0
  9048                           tosu	equ	0xFFF
  9049                           tosh	equ	0xFFE
  9050                           tosl	equ	0xFFD
  9051                           pclatu	equ	0xFFB
  9052                           pclath	equ	0xFFA
  9053                           intcon	equ	0xFF2
  9054                           intcon2	equ	0xFF1
  9055                           postinc0	equ	0xFEE
  9056                           wreg	equ	0xFE8
  9057                           indf2	equ	0xFDF
  9058                           postinc2	equ	0xFDE
  9059                           postdec2	equ	0xFDD
  9060                           fsr2h	equ	0xFDA
  9061                           fsr2l	equ	0xFD9
  9062                           status	equ	0xFD8
  9063                           
  9064 ;; *************** function _EUSART2_Receive_ISR *****************
  9065 ;; Defined at:
  9066 ;;		line 176 in file "mcc_generated_files/eusart2.c"
  9067 ;; Parameters:    Size  Location     Type
  9068 ;;		None
  9069 ;; Auto vars:     Size  Location     Type
  9070 ;;		None
  9071 ;; Return value:  Size  Location     Type
  9072 ;;                  1    wreg      void 
  9073 ;; Registers used:
  9074 ;;		wreg, fsr2l, fsr2h, status,2, status,0
  9075 ;; Tracked objects:
  9076 ;;		On entry : 0/0
  9077 ;;		On exit  : 0/0
  9078 ;;		Unchanged: 0/0
  9079 ;; Data sizes:     COMRAM   BANK0   BANK1   BANK2   BANK3   BANK4   BANK5   BANK6   BANK7   BANK8   BANK9  BANK10  BANK1
      +1  BANK12  BANK13  BANK14  BANK15
  9080 ;;      Params:         0       0       0       0       0       0       0       0       0       0       0       0       
      +0       0       0       0       0
  9081 ;;      Locals:         0       0       0       0       0       0       0       0       0       0       0       0       
      +0       0       0       0       0
  9082 ;;      Temps:          0       0       0       0       0       0       0       0       0       0       0       0       
      +0       0       0       0       0
  9083 ;;      Totals:         0       0       0       0       0       0       0       0       0       0       0       0       
      +0       0       0       0       0
  9084 ;;Total ram usage:        0 bytes
  9085 ;; Hardware stack levels used:    1
  9086 ;; This function calls:
  9087 ;;		Nothing
  9088 ;; This function is called by:
  9089 ;;		_INTERRUPT_InterruptManager
  9090 ;; This function uses a non-reentrant model
  9091 ;;
  9092                           
  9093                           	psect	text50
  9094  001EF6                     __ptext50:
  9095                           	opt stack 0
  9096  001EF6                     _EUSART2_Receive_ISR:
  9097                           	opt stack 24
  9098                           
  9099                           ;eusart2.c: 178: if(1 == RCSTA2bits.OERR)
  9100                           
  9101                           ;incstack = 0
  9102  001EF6  A271               	btfss	3953,1,c	;volatile
  9103  001EF8  D002               	goto	i2l2620
  9104                           
  9105                           ;eusart2.c: 179: {
  9106                           ;eusart2.c: 182: RCSTA2bits.CREN = 0;
  9107  001EFA  9871               	bcf	3953,4,c	;volatile
  9108                           
  9109                           ;eusart2.c: 183: RCSTA2bits.CREN = 1;
  9110  001EFC  8871               	bsf	3953,4,c	;volatile
  9111  001EFE                     i2l2620:
  9112                           
  9113                           ;eusart2.c: 184: }
  9114                           ;eusart2.c: 187: eusart2RxBuffer[eusart2RxHead++] = RCREG2;
  9115  001EFE  502C               	movf	_eusart2RxHead,w,c
  9116  001F00  0F09               	addlw	low _eusart2RxBuffer
  9117  001F02  6ED9               	movwf	fsr2l,c
  9118  001F04  6ADA               	clrf	fsr2h,c
  9119  001F06  CF74 FFDF          	movff	3956,indf2	;volatile
  9120  001F0A  2A2C               	incf	_eusart2RxHead,f,c
  9121                           
  9122                           ;eusart2.c: 188: if(sizeof(eusart2RxBuffer) <= eusart2RxHead)
  9123  001F0C  0E07               	movlw	7
  9124  001F0E  642C               	cpfsgt	_eusart2RxHead,c
  9125  001F10  D001               	goto	i2l2628
  9126                           
  9127                           ;eusart2.c: 189: {
  9128                           ;eusart2.c: 190: eusart2RxHead = 0;
  9129  001F12  6A2C               	clrf	_eusart2RxHead,c
  9130  001F14                     i2l2628:
  9131                           
  9132                           ;eusart2.c: 191: }
  9133                           ;eusart2.c: 192: eusart2RxCount++;
  9134  001F14  2A2B               	incf	_eusart2RxCount,f,c	;volatile
  9135  001F16  0012               	return		;funcret
  9136  001F18                     __end_of_EUSART2_Receive_ISR:
  9137                           	opt stack 0
  9138                           tosu	equ	0xFFF
  9139                           tosh	equ	0xFFE
  9140                           tosl	equ	0xFFD
  9141                           pclatu	equ	0xFFB
  9142                           pclath	equ	0xFFA
  9143                           intcon	equ	0xFF2
  9144                           intcon2	equ	0xFF1
  9145                           postinc0	equ	0xFEE
  9146                           wreg	equ	0xFE8
  9147                           indf2	equ	0xFDF
  9148                           postinc2	equ	0xFDE
  9149                           postdec2	equ	0xFDD
  9150                           fsr2h	equ	0xFDA
  9151                           fsr2l	equ	0xFD9
  9152                           status	equ	0xFD8
  9153                           
  9154 ;; *************** function _EUSART1_Transmit_ISR *****************
  9155 ;; Defined at:
  9156 ;;		line 168 in file "mcc_generated_files/eusart1.c"
  9157 ;; Parameters:    Size  Location     Type
  9158 ;;		None
  9159 ;; Auto vars:     Size  Location     Type
  9160 ;;		None
  9161 ;; Return value:  Size  Location     Type
  9162 ;;                  1    wreg      void 
  9163 ;; Registers used:
  9164 ;;		wreg, fsr2l, fsr2h, status,2, status,0
  9165 ;; Tracked objects:
  9166 ;;		On entry : 0/0
  9167 ;;		On exit  : 0/0
  9168 ;;		Unchanged: 0/0
  9169 ;; Data sizes:     COMRAM   BANK0   BANK1   BANK2   BANK3   BANK4   BANK5   BANK6   BANK7   BANK8   BANK9  BANK10  BANK1
      +1  BANK12  BANK13  BANK14  BANK15
  9170 ;;      Params:         0       0       0       0       0       0       0       0       0       0       0       0       
      +0       0       0       0       0
  9171 ;;      Locals:         0       0       0       0       0       0       0       0       0       0       0       0       
      +0       0       0       0       0
  9172 ;;      Temps:          0       0       0       0       0       0       0       0       0       0       0       0       
      +0       0       0       0       0
  9173 ;;      Totals:         0       0       0       0       0       0       0       0       0       0       0       0       
      +0       0       0       0       0
  9174 ;;Total ram usage:        0 bytes
  9175 ;; Hardware stack levels used:    1
  9176 ;; This function calls:
  9177 ;;		Nothing
  9178 ;; This function is called by:
  9179 ;;		_INTERRUPT_InterruptManager
  9180 ;; This function uses a non-reentrant model
  9181 ;;
  9182                           
  9183                           	psect	text51
  9184  001EB0                     __ptext51:
  9185                           	opt stack 0
  9186  001EB0                     _EUSART1_Transmit_ISR:
  9187                           	opt stack 24
  9188                           
  9189                           ;eusart1.c: 172: if(sizeof(eusart1TxBuffer) > eusart1TxBufferRemaining)
  9190                           
  9191                           ;incstack = 0
  9192  001EB0  0E08               	movlw	8
  9193  001EB2  6055               	cpfslt	_eusart1TxBufferRemaining,c
  9194  001EB4  D00D               	goto	i2l704
  9195                           
  9196                           ;eusart1.c: 173: {
  9197                           ;eusart1.c: 174: TXREG1 = eusart1TxBuffer[eusart1TxTail++];
  9198  001EB6  502A               	movf	_eusart1TxTail,w,c
  9199  001EB8  0F60               	addlw	low _eusart1TxBuffer
  9200  001EBA  6ED9               	movwf	fsr2l,c
  9201  001EBC  6ADA               	clrf	fsr2h,c
  9202  001EBE  50DF               	movf	indf2,w,c
  9203  001EC0  6EAD               	movwf	4013,c	;volatile
  9204  001EC2  2A2A               	incf	_eusart1TxTail,f,c
  9205                           
  9206                           ;eusart1.c: 175: if(sizeof(eusart1TxBuffer) <= eusart1TxTail)
  9207  001EC4  0E07               	movlw	7
  9208  001EC6  642A               	cpfsgt	_eusart1TxTail,c
  9209  001EC8  D001               	goto	i2l3042
  9210                           
  9211                           ;eusart1.c: 176: {
  9212                           ;eusart1.c: 177: eusart1TxTail = 0;
  9213  001ECA  6A2A               	clrf	_eusart1TxTail,c
  9214  001ECC                     i2l3042:
  9215                           
  9216                           ;eusart1.c: 178: }
  9217                           ;eusart1.c: 179: eusart1TxBufferRemaining++;
  9218  001ECC  2A55               	incf	_eusart1TxBufferRemaining,f,c	;volatile
  9219                           
  9220                           ;eusart1.c: 180: }
  9221  001ECE  0012               	return	
  9222  001ED0                     i2l704:
  9223                           
  9224                           ;eusart1.c: 181: else
  9225                           ;eusart1.c: 182: {
  9226                           ;eusart1.c: 183: PIE1bits.TX1IE = 0;
  9227  001ED0  989D               	bcf	3997,4,c	;volatile
  9228  001ED2  0012               	return		;funcret
  9229  001ED4                     __end_of_EUSART1_Transmit_ISR:
  9230                           	opt stack 0
  9231                           tosu	equ	0xFFF
  9232                           tosh	equ	0xFFE
  9233                           tosl	equ	0xFFD
  9234                           pclatu	equ	0xFFB
  9235                           pclath	equ	0xFFA
  9236                           intcon	equ	0xFF2
  9237                           intcon2	equ	0xFF1
  9238                           postinc0	equ	0xFEE
  9239                           wreg	equ	0xFE8
  9240                           indf2	equ	0xFDF
  9241                           postinc2	equ	0xFDE
  9242                           postdec2	equ	0xFDD
  9243                           fsr2h	equ	0xFDA
  9244                           fsr2l	equ	0xFD9
  9245                           status	equ	0xFD8
  9246                           
  9247 ;; *************** function _EUSART1_Receive_ISR *****************
  9248 ;; Defined at:
  9249 ;;		line 187 in file "mcc_generated_files/eusart1.c"
  9250 ;; Parameters:    Size  Location     Type
  9251 ;;		None
  9252 ;; Auto vars:     Size  Location     Type
  9253 ;;		None
  9254 ;; Return value:  Size  Location     Type
  9255 ;;                  1    wreg      void 
  9256 ;; Registers used:
  9257 ;;		wreg, fsr2l, fsr2h, status,2, status,0
  9258 ;; Tracked objects:
  9259 ;;		On entry : 0/0
  9260 ;;		On exit  : 0/0
  9261 ;;		Unchanged: 0/0
  9262 ;; Data sizes:     COMRAM   BANK0   BANK1   BANK2   BANK3   BANK4   BANK5   BANK6   BANK7   BANK8   BANK9  BANK10  BANK1
      +1  BANK12  BANK13  BANK14  BANK15
  9263 ;;      Params:         0       0       0       0       0       0       0       0       0       0       0       0       
      +0       0       0       0       0
  9264 ;;      Locals:         0       0       0       0       0       0       0       0       0       0       0       0       
      +0       0       0       0       0
  9265 ;;      Temps:          0       0       0       0       0       0       0       0       0       0       0       0       
      +0       0       0       0       0
  9266 ;;      Totals:         0       0       0       0       0       0       0       0       0       0       0       0       
      +0       0       0       0       0
  9267 ;;Total ram usage:        0 bytes
  9268 ;; Hardware stack levels used:    1
  9269 ;; This function calls:
  9270 ;;		Nothing
  9271 ;; This function is called by:
  9272 ;;		_INTERRUPT_InterruptManager
  9273 ;; This function uses a non-reentrant model
  9274 ;;
  9275                           
  9276                           	psect	text52
  9277  001F18                     __ptext52:
  9278                           	opt stack 0
  9279  001F18                     _EUSART1_Receive_ISR:
  9280                           	opt stack 24
  9281                           
  9282                           ;eusart1.c: 189: if(1 == RCSTA1bits.OERR)
  9283                           
  9284                           ;incstack = 0
  9285  001F18  A2AB               	btfss	4011,1,c	;volatile
  9286  001F1A  D002               	goto	i2l2650
  9287                           
  9288                           ;eusart1.c: 190: {
  9289                           ;eusart1.c: 193: RCSTA1bits.CREN = 0;
  9290  001F1C  98AB               	bcf	4011,4,c	;volatile
  9291                           
  9292                           ;eusart1.c: 194: RCSTA1bits.CREN = 1;
  9293  001F1E  88AB               	bsf	4011,4,c	;volatile
  9294  001F20                     i2l2650:
  9295                           
  9296                           ;eusart1.c: 195: }
  9297                           ;eusart1.c: 198: eusart1RxBuffer[eusart1RxHead++] = RCREG1;
  9298  001F20  5029               	movf	_eusart1RxHead,w,c
  9299  001F22  0F01               	addlw	low _eusart1RxBuffer
  9300  001F24  6ED9               	movwf	fsr2l,c
  9301  001F26  6ADA               	clrf	fsr2h,c
  9302  001F28  CFAE FFDF          	movff	4014,indf2	;volatile
  9303  001F2C  2A29               	incf	_eusart1RxHead,f,c
  9304                           
  9305                           ;eusart1.c: 199: if(sizeof(eusart1RxBuffer) <= eusart1RxHead)
  9306  001F2E  0E07               	movlw	7
  9307  001F30  6429               	cpfsgt	_eusart1RxHead,c
  9308  001F32  D001               	goto	i2l2658
  9309                           
  9310                           ;eusart1.c: 200: {
  9311                           ;eusart1.c: 201: eusart1RxHead = 0;
  9312  001F34  6A29               	clrf	_eusart1RxHead,c
  9313  001F36                     i2l2658:
  9314                           
  9315                           ;eusart1.c: 202: }
  9316                           ;eusart1.c: 203: eusart1RxCount++;
  9317  001F36  2A28               	incf	_eusart1RxCount,f,c	;volatile
  9318                           
  9319                           ;eusart1.c: 206: if (sizeof(eusart1RxBuffer) == 1) {
  9320  001F38  0012               	return		;funcret
  9321  001F3A                     __end_of_EUSART1_Receive_ISR:
  9322                           	opt stack 0
  9323                           tosu	equ	0xFFF
  9324                           tosh	equ	0xFFE
  9325                           tosl	equ	0xFFD
  9326                           pclatu	equ	0xFFB
  9327                           pclath	equ	0xFFA
  9328                           intcon	equ	0xFF2
  9329                           intcon2	equ	0xFF1
  9330                           postinc0	equ	0xFEE
  9331                           wreg	equ	0xFE8
  9332                           indf2	equ	0xFDF
  9333                           postinc2	equ	0xFDE
  9334                           postdec2	equ	0xFDD
  9335                           fsr2h	equ	0xFDA
  9336                           fsr2l	equ	0xFD9
  9337                           status	equ	0xFD8
  9338                           
  9339 ;; *************** function _CCP4_CaptureISR *****************
  9340 ;; Defined at:
  9341 ;;		line 83 in file "mcc_generated_files/ccp4.c"
  9342 ;; Parameters:    Size  Location     Type
  9343 ;;		None
  9344 ;; Auto vars:     Size  Location     Type
  9345 ;;  module          2    5[COMRAM] struct CCPR4Reg_tag
  9346 ;; Return value:  Size  Location     Type
  9347 ;;                  1    wreg      void 
  9348 ;; Registers used:
  9349 ;;		wreg, status,2, status,0, cstack
  9350 ;; Tracked objects:
  9351 ;;		On entry : 0/0
  9352 ;;		On exit  : 0/0
  9353 ;;		Unchanged: 0/0
  9354 ;; Data sizes:     COMRAM   BANK0   BANK1   BANK2   BANK3   BANK4   BANK5   BANK6   BANK7   BANK8   BANK9  BANK10  BANK1
      +1  BANK12  BANK13  BANK14  BANK15
  9355 ;;      Params:         0       0       0       0       0       0       0       0       0       0       0       0       
      +0       0       0       0       0
  9356 ;;      Locals:         2       0       0       0       0       0       0       0       0       0       0       0       
      +0       0       0       0       0
  9357 ;;      Temps:          0       0       0       0       0       0       0       0       0       0       0       0       
      +0       0       0       0       0
  9358 ;;      Totals:         2       0       0       0       0       0       0       0       0       0       0       0       
      +0       0       0       0       0
  9359 ;;Total ram usage:        2 bytes
  9360 ;; Hardware stack levels used:    1
  9361 ;; Hardware stack levels required when called:    2
  9362 ;; This function calls:
  9363 ;;		_CCP4_CallBack
  9364 ;; This function is called by:
  9365 ;;		_INTERRUPT_InterruptManager
  9366 ;; This function uses a non-reentrant model
  9367 ;;
  9368                           
  9369                           	psect	text53
  9370  001FEA                     __ptext53:
  9371                           	opt stack 0
  9372  001FEA                     _CCP4_CaptureISR:
  9373                           	opt stack 22
  9374                           
  9375                           ;ccp4.c: 85: CCP_PERIOD_REG_T module;
  9376                           ;ccp4.c: 91: module.ccpr4l = CCPR4L;
  9377                           
  9378                           ;incstack = 0
  9379  001FEA  CF58 F049          	movff	3928,CCP4_CaptureISR@module	;volatile
  9380                           
  9381                           ;ccp4.c: 92: module.ccpr4h = CCPR4H;
  9382  001FEE  CF59 F04A          	movff	3929,CCP4_CaptureISR@module+1	;volatile
  9383                           
  9384                           ;ccp4.c: 95: CCP4_CallBack(module.ccpr4_16Bit);
  9385  001FF2  C049  F047         	movff	CCP4_CaptureISR@module,CCP4_CallBack@capturedValue
  9386  001FF6  C04A  F048         	movff	CCP4_CaptureISR@module+1,CCP4_CallBack@capturedValue+1
  9387  001FFA  EFFB  F00E         	goto	_CCP4_CallBack	;wreg free
  9388  001FFE                     __end_of_CCP4_CaptureISR:
  9389                           	opt stack 0
  9390                           tosu	equ	0xFFF
  9391                           tosh	equ	0xFFE
  9392                           tosl	equ	0xFFD
  9393                           pclatu	equ	0xFFB
  9394                           pclath	equ	0xFFA
  9395                           intcon	equ	0xFF2
  9396                           intcon2	equ	0xFF1
  9397                           postinc0	equ	0xFEE
  9398                           wreg	equ	0xFE8
  9399                           indf2	equ	0xFDF
  9400                           postinc2	equ	0xFDE
  9401                           postdec2	equ	0xFDD
  9402                           fsr2h	equ	0xFDA
  9403                           fsr2l	equ	0xFD9
  9404                           status	equ	0xFD8
  9405                           
  9406 ;; *************** function _CCP4_CallBack *****************
  9407 ;; Defined at:
  9408 ;;		line 98 in file "mcc_generated_files/ccp4.c"
  9409 ;; Parameters:    Size  Location     Type
  9410 ;;  capturedValu    2    3[COMRAM] unsigned int 
  9411 ;; Auto vars:     Size  Location     Type
  9412 ;;		None
  9413 ;; Return value:  Size  Location     Type
  9414 ;;                  1    wreg      void 
  9415 ;; Registers used:
  9416 ;;		wreg, status,2, status,0, cstack
  9417 ;; Tracked objects:
  9418 ;;		On entry : 0/0
  9419 ;;		On exit  : 0/0
  9420 ;;		Unchanged: 0/0
  9421 ;; Data sizes:     COMRAM   BANK0   BANK1   BANK2   BANK3   BANK4   BANK5   BANK6   BANK7   BANK8   BANK9  BANK10  BANK1
      +1  BANK12  BANK13  BANK14  BANK15
  9422 ;;      Params:         2       0       0       0       0       0       0       0       0       0       0       0       
      +0       0       0       0       0
  9423 ;;      Locals:         0       0       0       0       0       0       0       0       0       0       0       0       
      +0       0       0       0       0
  9424 ;;      Temps:          0       0       0       0       0       0       0       0       0       0       0       0       
      +0       0       0       0       0
  9425 ;;      Totals:         2       0       0       0       0       0       0       0       0       0       0       0       
      +0       0       0       0       0
  9426 ;;Total ram usage:        2 bytes
  9427 ;; Hardware stack levels used:    1
  9428 ;; Hardware stack levels required when called:    1
  9429 ;; This function calls:
  9430 ;;		i2_delay_25ms_n_times
  9431 ;; This function is called by:
  9432 ;;		_CCP4_CaptureISR
  9433 ;; This function uses a non-reentrant model
  9434 ;;
  9435                           
  9436                           	psect	text54
  9437  001DF6                     __ptext54:
  9438                           	opt stack 0
  9439  001DF6                     _CCP4_CallBack:
  9440                           	opt stack 22
  9441                           
  9442                           ;ccp4.c: 101: if (capturedValue > 40192) {
  9443                           
  9444                           ;incstack = 0
  9445  001DF6  0447               	decf	CCP4_CallBack@capturedValue,w,c
  9446  001DF8  0E9D               	movlw	157
  9447  001DFA  5848               	subwfb	CCP4_CallBack@capturedValue+1,w,c
  9448  001DFC  E302               	bnc	i2l2954
  9449                           
  9450                           ;ccp4.c: 102: PIR4bits.CCP4IF = 0;
  9451  001DFE  927B               	bcf	3963,1,c	;volatile
  9452                           
  9453                           ;ccp4.c: 103: return;
  9454  001E00  0012               	return	
  9455  001E02                     i2l2954:
  9456                           
  9457                           ;ccp4.c: 104: }
  9458                           ;ccp4.c: 107: if (last_pattern_was_heal) {
  9459  001E02  5030               	movf	_last_pattern_was_heal,w,c
  9460  001E04  E002               	bz	i2l2958
  9461                           
  9462                           ;ccp4.c: 108: last_pattern_was_heal = 0;
  9463  001E06  6A30               	clrf	_last_pattern_was_heal,c
  9464                           
  9465                           ;ccp4.c: 110: } else {
  9466  001E08  D002               	goto	i2l2960
  9467  001E0A                     i2l2958:
  9468                           
  9469                           ;ccp4.c: 111: last_pattern_was_heal = 1;
  9470  001E0A  0E01               	movlw	1
  9471  001E0C  6E30               	movwf	_last_pattern_was_heal,c
  9472  001E0E                     i2l2960:
  9473                           
  9474                           ;ccp4.c: 113: }
  9475                           ;ccp4.c: 116: delay_25ms_n_times(80);
  9476  001E0E  0E00               	movlw	0
  9477  001E10  6E45               	movwf	i2delay_25ms_n_times@n+1,c
  9478  001E12  0E50               	movlw	80
  9479  001E14  6E44               	movwf	i2delay_25ms_n_times@n,c
  9480  001E16  EC78  F00E         	call	i2_delay_25ms_n_times	;wreg free
  9481                           
  9482                           ;ccp4.c: 117: PIR4bits.CCP4IF = 0;
  9483  001E1A  927B               	bcf	3963,1,c	;volatile
  9484  001E1C  0012               	return		;funcret
  9485  001E1E                     __end_of_CCP4_CallBack:
  9486                           	opt stack 0
  9487                           tosu	equ	0xFFF
  9488                           tosh	equ	0xFFE
  9489                           tosl	equ	0xFFD
  9490                           pclatu	equ	0xFFB
  9491                           pclath	equ	0xFFA
  9492                           intcon	equ	0xFF2
  9493                           intcon2	equ	0xFF1
  9494                           postinc0	equ	0xFEE
  9495                           wreg	equ	0xFE8
  9496                           indf2	equ	0xFDF
  9497                           postinc2	equ	0xFDE
  9498                           postdec2	equ	0xFDD
  9499                           fsr2h	equ	0xFDA
  9500                           fsr2l	equ	0xFD9
  9501                           status	equ	0xFD8
  9502                           
  9503 ;; *************** function i2_delay_25ms_n_times *****************
  9504 ;; Defined at:
  9505 ;;		line 10 in file "util_functions.c"
  9506 ;; Parameters:    Size  Location     Type
  9507 ;;  n               2    0[COMRAM] unsigned int 
  9508 ;; Auto vars:     Size  Location     Type
  9509 ;;		None
  9510 ;; Return value:  Size  Location     Type
  9511 ;;                  1    wreg      void 
  9512 ;; Registers used:
  9513 ;;		wreg, status,2, status,0
  9514 ;; Tracked objects:
  9515 ;;		On entry : 0/0
  9516 ;;		On exit  : 0/0
  9517 ;;		Unchanged: 0/0
  9518 ;; Data sizes:     COMRAM   BANK0   BANK1   BANK2   BANK3   BANK4   BANK5   BANK6   BANK7   BANK8   BANK9  BANK10  BANK1
      +1  BANK12  BANK13  BANK14  BANK15
  9519 ;;      Params:         2       0       0       0       0       0       0       0       0       0       0       0       
      +0       0       0       0       0
  9520 ;;      Locals:         0       0       0       0       0       0       0       0       0       0       0       0       
      +0       0       0       0       0
  9521 ;;      Temps:          1       0       0       0       0       0       0       0       0       0       0       0       
      +0       0       0       0       0
  9522 ;;      Totals:         3       0       0       0       0       0       0       0       0       0       0       0       
      +0       0       0       0       0
  9523 ;;Total ram usage:        3 bytes
  9524 ;; Hardware stack levels used:    1
  9525 ;; This function calls:
  9526 ;;		Nothing
  9527 ;; This function is called by:
  9528 ;;		_CCP4_CallBack
  9529 ;; This function uses a non-reentrant model
  9530 ;;
  9531                           
  9532                           	psect	text55
  9533  001CF0                     __ptext55:
  9534                           	opt stack 0
  9535  001CF0                     i2_delay_25ms_n_times:
  9536                           	opt stack 22
  9537  001CF0                     i2l2732:
  9538  001CF0  5045               	movf	i2delay_25ms_n_times@n+1,w,c
  9539  001CF2  E103               	bnz	i2l2736
  9540  001CF4  0E02               	movlw	2
  9541  001CF6  5C44               	subwf	i2delay_25ms_n_times@n,w,c
  9542  001CF8  E30B               	bnc	i2l2740
  9543  001CFA                     i2l2736:
  9544                           
  9545                           ;util_functions.c: 13: _delay((unsigned long)((25)*(16000000/4000.0)));
  9546  001CFA  0E82               	movlw	130
  9547  001CFC  6E46               	movwf	??i2_delay_25ms_n_times& (0+255),c
  9548  001CFE  0EDE               	movlw	222
  9549  001D00                     i2u173_47:
  9550  001D00  2EE8               	decfsz	wreg,f,c
  9551  001D02  D7FE               	goto	i2u173_47
  9552  001D04  2E46               	decfsz	??i2_delay_25ms_n_times& (0+255),f,c
  9553  001D06  D7FC               	goto	i2u173_47
  9554  001D08  0644               	decf	i2delay_25ms_n_times@n,f,c
  9555  001D0A  A0D8               	btfss	status,0,c
  9556  001D0C  0645               	decf	i2delay_25ms_n_times@n+1,f,c
  9557  001D0E  D7F0               	goto	i2l2732
  9558  001D10                     i2l2740:
  9559                           
  9560                           ;util_functions.c: 14: }
  9561                           ;util_functions.c: 16: _delay((unsigned long)((25)*(16000000/4000.0)));
  9562  001D10  0E82               	movlw	130
  9563  001D12  6E46               	movwf	??i2_delay_25ms_n_times& (0+255),c
  9564  001D14  0EDE               	movlw	222
  9565  001D16                     i2u174_47:
  9566  001D16  2EE8               	decfsz	wreg,f,c
  9567  001D18  D7FE               	goto	i2u174_47
  9568  001D1A  2E46               	decfsz	??i2_delay_25ms_n_times& (0+255),f,c
  9569  001D1C  D7FC               	goto	i2u174_47
  9570  001D1E  0012               	return		;funcret
  9571  001D20                     __end_ofi2_delay_25ms_n_times:
  9572                           	opt stack 0
  9573                           tosu	equ	0xFFF
  9574                           tosh	equ	0xFFE
  9575                           tosl	equ	0xFFD
  9576                           pclatu	equ	0xFFB
  9577                           pclath	equ	0xFFA
  9578                           intcon	equ	0xFF2
  9579                           intcon2	equ	0xFF1
  9580                           postinc0	equ	0xFEE
  9581                           wreg	equ	0xFE8
  9582                           indf2	equ	0xFDF
  9583                           postinc2	equ	0xFDE
  9584                           postdec2	equ	0xFDD
  9585                           fsr2h	equ	0xFDA
  9586                           fsr2l	equ	0xFD9
  9587                           status	equ	0xFD8
  9588                           tosu	equ	0xFFF
  9589                           tosh	equ	0xFFE
  9590                           tosl	equ	0xFFD
  9591                           pclatu	equ	0xFFB
  9592                           pclath	equ	0xFFA
  9593                           intcon	equ	0xFF2
  9594                           intcon2	equ	0xFF1
  9595                           postinc0	equ	0xFEE
  9596                           wreg	equ	0xFE8
  9597                           indf2	equ	0xFDF
  9598                           postinc2	equ	0xFDE
  9599                           postdec2	equ	0xFDD
  9600                           fsr2h	equ	0xFDA
  9601                           fsr2l	equ	0xFD9
  9602                           status	equ	0xFD8
  9603                           
  9604                           	psect	text56
  9605  000000                     __ptext56:
  9606                           	opt stack 0
  9607                           tosu	equ	0xFFF
  9608                           tosh	equ	0xFFE
  9609                           tosl	equ	0xFFD
  9610                           pclatu	equ	0xFFB
  9611                           pclath	equ	0xFFA
  9612                           intcon	equ	0xFF2
  9613                           intcon2	equ	0xFF1
  9614                           postinc0	equ	0xFEE
  9615                           wreg	equ	0xFE8
  9616                           indf2	equ	0xFDF
  9617                           postinc2	equ	0xFDE
  9618                           postdec2	equ	0xFDD
  9619                           fsr2h	equ	0xFDA
  9620                           fsr2l	equ	0xFD9
  9621                           status	equ	0xFD8
  9622                           
  9623                           	psect	rparam
  9624  0000                     tosu	equ	0xFFF
  9625                           tosh	equ	0xFFE
  9626                           tosl	equ	0xFFD
  9627                           pclatu	equ	0xFFB
  9628                           pclath	equ	0xFFA
  9629                           intcon	equ	0xFF2
  9630                           intcon2	equ	0xFF1
  9631                           postinc0	equ	0xFEE
  9632                           wreg	equ	0xFE8
  9633                           indf2	equ	0xFDF
  9634                           postinc2	equ	0xFDE
  9635                           postdec2	equ	0xFDD
  9636                           fsr2h	equ	0xFDA
  9637                           fsr2l	equ	0xFD9
  9638                           status	equ	0xFD8
  9639                           
  9640                           	psect	temp
  9641  000057                     btemp:
  9642                           	opt stack 0
  9643  000057                     	ds	1
  9644  0000                     int$flags	set	btemp
  9645                           tosu	equ	0xFFF
  9646                           tosh	equ	0xFFE
  9647                           tosl	equ	0xFFD
  9648                           pclatu	equ	0xFFB
  9649                           pclath	equ	0xFFA
  9650                           intcon	equ	0xFF2
  9651                           intcon2	equ	0xFF1
  9652                           postinc0	equ	0xFEE
  9653                           wreg	equ	0xFE8
  9654                           indf2	equ	0xFDF
  9655                           postinc2	equ	0xFDE
  9656                           postdec2	equ	0xFDD
  9657                           fsr2h	equ	0xFDA
  9658                           fsr2l	equ	0xFD9
  9659                           status	equ	0xFD8


Data Sizes:
    Strings     19
    Constant    7
    Data        0
    BSS         88
    Persistent  8
    Stack       0

Auto Spaces:
    Space          Size  Autos    Used
    COMRAM           94     11      86
    BANK0           160      8      29
    BANK1           256      0       0
    BANK2           256      0       0
    BANK3           256      0       0
    BANK4           256      0       0
    BANK5           256      0       0
    BANK6           256      0       0
    BANK7           256      0       0
    BANK8           256      0       0
    BANK9           256      0       0
    BANK10          256      0       0
    BANK11          256      0       0
    BANK12          256      0       0
    BANK13          256      0       0
    BANK14          256      0       0
    BANK15           56      0       0

Pointer List with Targets:

    i2c2_tr_queue.ptrb_list.pbuffer	PTR unsigned char  size(2) Largest target is 0

    i2c2_tr_queue.pTrFlag	PTR enum E7395 size(2) Largest target is 0

    i2c2_tr_queue.ptrb_list	PTR struct . size(1) Largest target is 0
		 -> I2C2_MasterRead@trBlock(COMRAM[6]), I2C2_MasterWrite@trBlock(COMRAM[6]), 

    TMR3_SetInterruptHandler@InterruptHandler	PTR void  size(2) Largest target is 1
		 -> TMR3_DefaultInterruptHandler(), 

    TMR3_InterruptHandler	PTR FTN()void  size(2) Largest target is 1
		 -> Absolute function(), TMR3_DefaultInterruptHandler(), 

    I2C2_MasterWriteTRBBuild@ptrb.pbuffer	PTR unsigned char  size(2) Largest target is 0

    I2C2_MasterReadTRBBuild@ptrb.pbuffer	PTR unsigned char  size(2) Largest target is 0

    i2c2_object.pTrTail.ptrb_list.pbuffer	PTR unsigned char  size(2) Largest target is 0

    i2c2_object.pTrTail.pTrFlag	PTR enum E7395 size(2) Largest target is 0

    i2c2_object.pTrTail.ptrb_list	PTR struct . size(1) Largest target is 6
		 -> I2C2_MasterRead@trBlock(COMRAM[6]), I2C2_MasterWrite@trBlock(COMRAM[6]), 

    F7507.pbuffer	PTR unsigned char  size(2) Largest target is 0

    F7502.pbuffer	PTR unsigned char  size(2) Largest target is 0

    I2C2_ISR@pi2c_buf_ptr	PTR unsigned char  size(2) Largest target is 0
		 -> I2C2_ISR@i2c_address(COMRAM[2]), NULL(NULL[0]), 

    S2036$pbuffer	PTR unsigned char  size(2) Largest target is 0

    p_i2c2_trb_current.pbuffer	PTR unsigned char  size(2) Largest target is 0

    p_i2c2_trb_current	PTR struct . size(2) Largest target is 6
		 -> I2C2_MasterRead@trBlock(COMRAM[6]), I2C2_MasterWrite@trBlock(COMRAM[6]), NULL(NULL[0]), 

    i2c2_object.pTrHead.pTrFlag	PTR enum E7395 size(2) Largest target is 0

    i2c2_object.pTrHead.ptrb_list	PTR struct . size(1) Largest target is 6
		 -> I2C2_MasterRead@trBlock(COMRAM[6]), I2C2_MasterWrite@trBlock(COMRAM[6]), 

    S2048$pTrFlag	PTR enum E7395 size(2) Largest target is 0

    p_i2c2_current.pTrFlag	PTR enum E7395 size(2) Largest target is 0

    S2048$ptrb_list	PTR struct . size(1) Largest target is 6
		 -> I2C2_MasterRead@trBlock(COMRAM[6]), I2C2_MasterWrite@trBlock(COMRAM[6]), 

    p_i2c2_current.ptrb_list	PTR struct . size(1) Largest target is 6
		 -> I2C2_MasterRead@trBlock(COMRAM[6]), I2C2_MasterWrite@trBlock(COMRAM[6]), 

    p_i2c2_current	PTR struct . size(2) Largest target is 7
		 -> i2c2_tr_queue(COMRAM[5]), NULL(NULL[0]), 

    S2059$pTrHead	PTR struct . size(1) Largest target is 7
		 -> i2c2_tr_queue(COMRAM[5]), 

    i2c2_object.pTrHead	PTR struct . size(1) Largest target is 7
		 -> i2c2_tr_queue(COMRAM[5]), 

    S2059$pTrTail	PTR struct . size(1) Largest target is 7
		 -> i2c2_tr_queue(COMRAM[5]), 

    i2c2_object.pTrTail	PTR struct . size(1) Largest target is 7
		 -> i2c2_tr_queue(COMRAM[5]), 

    sp__memcpy	PTR void  size(1) Largest target is 13
		 -> piu_buff(BANK0[13]), 


Critical Paths under _main in COMRAM

    None.

Critical Paths under _INTERRUPT_InterruptManager in COMRAM

    _INTERRUPT_InterruptManager->_CCP4_CaptureISR
    _I2C2_ISR->_I2C2_Stop
    _CCP4_CaptureISR->_CCP4_CallBack
    _CCP4_CallBack->i2_delay_25ms_n_times

Critical Paths under _main in BANK0

    _main->_LED_play_pattern
    _TMR3_Initialize->_TMR3_SetInterruptHandler
    _LED_play_pattern->_playArmed
    _LED_play_pattern->_playElementDamage
    _LED_play_pattern->_playStun
    _LED_play_pattern->_playStunSelf
    _LED_play_pattern->_playTestFailed
    _LED_play_pattern->_playTestPassed
    _playTestPassed->_delay_25ms_n_times
    _playTestFailed->_delay_25ms_n_times
    _playStunSelf->_clearPattern
    _playStun->_delay_25ms_n_times
    _playHeal->_delay_25ms_n_times
    _playElementDamage->_delay_25ms_n_times
    _playDamage->_clearPattern
    _playDamage->_delay_25ms_n_times
    _playArmed->_delay_25ms_n_times

Critical Paths under _INTERRUPT_InterruptManager in BANK0

    None.

Critical Paths under _main in BANK1

    None.

Critical Paths under _INTERRUPT_InterruptManager in BANK1

    None.

Critical Paths under _main in BANK2

    None.

Critical Paths under _INTERRUPT_InterruptManager in BANK2

    None.

Critical Paths under _main in BANK3

    None.

Critical Paths under _INTERRUPT_InterruptManager in BANK3

    None.

Critical Paths under _main in BANK4

    None.

Critical Paths under _INTERRUPT_InterruptManager in BANK4

    None.

Critical Paths under _main in BANK5

    None.

Critical Paths under _INTERRUPT_InterruptManager in BANK5

    None.

Critical Paths under _main in BANK6

    None.

Critical Paths under _INTERRUPT_InterruptManager in BANK6

    None.

Critical Paths under _main in BANK7

    None.

Critical Paths under _INTERRUPT_InterruptManager in BANK7

    None.

Critical Paths under _main in BANK8

    None.

Critical Paths under _INTERRUPT_InterruptManager in BANK8

    None.

Critical Paths under _main in BANK9

    None.

Critical Paths under _INTERRUPT_InterruptManager in BANK9

    None.

Critical Paths under _main in BANK10

    None.

Critical Paths under _INTERRUPT_InterruptManager in BANK10

    None.

Critical Paths under _main in BANK11

    None.

Critical Paths under _INTERRUPT_InterruptManager in BANK11

    None.

Critical Paths under _main in BANK12

    None.

Critical Paths under _INTERRUPT_InterruptManager in BANK12

    None.

Critical Paths under _main in BANK13

    None.

Critical Paths under _INTERRUPT_InterruptManager in BANK13

    None.

Critical Paths under _main in BANK14

    None.

Critical Paths under _INTERRUPT_InterruptManager in BANK14

    None.

Critical Paths under _main in BANK15

    None.

Critical Paths under _INTERRUPT_InterruptManager in BANK15

    None.

Call Graph Tables:

 ---------------------------------------------------------------------------------
 (Depth) Function   	        Calls       Base Space   Used Autos Params    Refs
 ---------------------------------------------------------------------------------
 (0) _main                                                 0     0      0   11712
                   _LED_play_pattern
                  _SYSTEM_Initialize
                 _delay_25ms_n_times
 ---------------------------------------------------------------------------------
 (1) _SYSTEM_Initialize                                    0     0      0     108
                    _CCP4_Initialize
                 _EUSART1_Initialize
                 _EUSART2_Initialize
                    _I2C2_Initialize
               _INTERRUPT_Initialize
              _OSCILLATOR_Initialize
             _PIN_MANAGER_Initialize
                    _PWM5_Initialize
                    _SPI1_Initialize
                    _TMR1_Initialize
                    _TMR2_Initialize
                    _TMR3_Initialize
                    _TMR4_Initialize
 ---------------------------------------------------------------------------------
 (2) _TMR4_Initialize                                      0     0      0       0
                    _TMR4_StartTimer
 ---------------------------------------------------------------------------------
 (3) _TMR4_StartTimer                                      0     0      0       0
 ---------------------------------------------------------------------------------
 (2) _TMR3_Initialize                                      0     0      0     108
           _TMR3_SetInterruptHandler
                    _TMR3_StartTimer
 ---------------------------------------------------------------------------------
 (3) _TMR3_StartTimer                                      0     0      0       0
 ---------------------------------------------------------------------------------
 (3) _TMR3_SetInterruptHandler                             2     0      2     108
                                              0 BANK0      2     0      2
 ---------------------------------------------------------------------------------
 (2) _TMR2_Initialize                                      0     0      0       0
                    _TMR2_StartTimer
 ---------------------------------------------------------------------------------
 (3) _TMR2_StartTimer                                      0     0      0       0
 ---------------------------------------------------------------------------------
 (2) _TMR1_Initialize                                      0     0      0       0
                    _TMR1_StartTimer
 ---------------------------------------------------------------------------------
 (3) _TMR1_StartTimer                                      0     0      0       0
 ---------------------------------------------------------------------------------
 (2) _SPI1_Initialize                                      0     0      0       0
 ---------------------------------------------------------------------------------
 (2) _PWM5_Initialize                                      0     0      0       0
 ---------------------------------------------------------------------------------
 (2) _PIN_MANAGER_Initialize                               0     0      0       0
 ---------------------------------------------------------------------------------
 (2) _OSCILLATOR_Initialize                                0     0      0       0
 ---------------------------------------------------------------------------------
 (2) _INTERRUPT_Initialize                                 0     0      0       0
 ---------------------------------------------------------------------------------
 (2) _I2C2_Initialize                                      0     0      0       0
 ---------------------------------------------------------------------------------
 (2) _EUSART2_Initialize                                   0     0      0       0
 ---------------------------------------------------------------------------------
 (2) _EUSART1_Initialize                                   0     0      0       0
 ---------------------------------------------------------------------------------
 (2) _CCP4_Initialize                                      0     0      0       0
 ---------------------------------------------------------------------------------
 (1) _LED_play_pattern                                     3     3      0   10345
                                              5 BANK0      3     3      0
                       _clearPattern
                          _playArmed
                         _playDamage
                  _playElementDamage
                           _playHeal
                           _playStun
                       _playStunSelf
                     _playTestFailed
                     _playTestPassed
 ---------------------------------------------------------------------------------
 (2) _playTestPassed                                       2     2      0    1531
                                              3 BANK0      2     2      0
                          _colorBlue
                         _colorGreen
                           _colorRed
                        _colorYellow
                 _delay_25ms_n_times
 ---------------------------------------------------------------------------------
 (2) _playTestFailed                                       2     2      0    1327
                                              3 BANK0      2     2      0
                          _colorPink
                 _delay_25ms_n_times
 ---------------------------------------------------------------------------------
 (3) _colorPink                                            0     0      0       0
                             _LEDOne
                            _LEDZero
 ---------------------------------------------------------------------------------
 (2) _playStunSelf                                         2     2      0      92
                                              3 BANK0      2     2      0
                       _clearPattern
                        _colorYellow
 ---------------------------------------------------------------------------------
 (2) _playStun                                             2     2      0    1494
                                              3 BANK0      2     2      0
                           _colorRed
                        _colorYellow
                 _delay_25ms_n_times
 ---------------------------------------------------------------------------------
 (3) _colorYellow                                          0     0      0       0
                             _LEDOne
                            _LEDZero
 ---------------------------------------------------------------------------------
 (2) _playHeal                                             1     1      0    1327
                                              3 BANK0      1     1      0
                         _colorGreen
                 _delay_25ms_n_times
 ---------------------------------------------------------------------------------
 (3) _colorGreen                                           0     0      0       0
                             _LEDOne
                            _LEDZero
 ---------------------------------------------------------------------------------
 (2) _playElementDamage                                    2     2      0    1494
                                              3 BANK0      2     2      0
                          _colorBlue
                       _colorBlueTwo
                 _delay_25ms_n_times
 ---------------------------------------------------------------------------------
 (3) _colorBlueTwo                                         0     0      0       0
                             _LEDOne
                            _LEDZero
 ---------------------------------------------------------------------------------
 (3) _colorBlue                                            0     0      0       0
                             _LEDOne
                            _LEDZero
 ---------------------------------------------------------------------------------
 (2) _playDamage                                           1     1      0    1373
                                              3 BANK0      1     1      0
                       _clearPattern
                           _colorRed
                 _delay_25ms_n_times
 ---------------------------------------------------------------------------------
 (3) _clearPattern                                         3     3      0      46
                                              0 BANK0      3     3      0
                         _colorBlack
 ---------------------------------------------------------------------------------
 (4) _colorBlack                                           0     0      0       0
                            _LEDZero
 ---------------------------------------------------------------------------------
 (2) _playArmed                                            2     2      0    1494
                                              3 BANK0      2     2      0
                           _colorRed
                        _colorRedTwo
                 _delay_25ms_n_times
 ---------------------------------------------------------------------------------
 (1) _delay_25ms_n_times                                   3     1      2    1259
                                              0 BANK0      3     1      2
 ---------------------------------------------------------------------------------
 (3) _colorRedTwo                                          0     0      0       0
                             _LEDOne
                            _LEDZero
 ---------------------------------------------------------------------------------
 (3) _colorRed                                             0     0      0       0
                             _LEDOne
                            _LEDZero
 ---------------------------------------------------------------------------------
 (4) _LEDZero                                              0     0      0       0
 ---------------------------------------------------------------------------------
 (4) _LEDOne                                               0     0      0       0
 ---------------------------------------------------------------------------------
 Estimated maximum stack depth 4
 ---------------------------------------------------------------------------------
 (Depth) Function   	        Calls       Base Space   Used Autos Params    Refs
 ---------------------------------------------------------------------------------
 (6) _INTERRUPT_InterruptManager                           4     4      0     219
                                              7 COMRAM     4     4      0
                    _CCP4_CaptureISR
                _EUSART1_Receive_ISR
               _EUSART1_Transmit_ISR
                _EUSART2_Receive_ISR
               _EUSART2_Transmit_ISR
               _I2C2_BusCollisionISR
                           _I2C2_ISR
                           _TMR3_ISR
 ---------------------------------------------------------------------------------
 (7) _TMR3_ISR                                             0     0      0       0
                      _TMR3_CallBack
 ---------------------------------------------------------------------------------
 (8) _TMR3_CallBack                                        0     0      0       0
                   Absolute function *
       _TMR3_DefaultInterruptHandler *
 ---------------------------------------------------------------------------------
 (9) _TMR3_DefaultInterruptHandler                         0     0      0       0
 ---------------------------------------------------------------------------------
 (9) Absolute function(Fake)                               0     0      0       0
 ---------------------------------------------------------------------------------
 (7) _I2C2_ISR                                             2     2      0      15
                                              1 COMRAM     2     2      0
              _I2C2_FunctionComplete
                          _I2C2_Stop
 ---------------------------------------------------------------------------------
 (8) _I2C2_Stop                                            1     1      0      15
                                              0 COMRAM     1     1      0
 ---------------------------------------------------------------------------------
 (8) _I2C2_FunctionComplete                                0     0      0       0
 ---------------------------------------------------------------------------------
 (7) _I2C2_BusCollisionISR                                 0     0      0       0
 ---------------------------------------------------------------------------------
 (7) _EUSART2_Transmit_ISR                                 0     0      0       0
 ---------------------------------------------------------------------------------
 (7) _EUSART2_Receive_ISR                                  0     0      0       0
 ---------------------------------------------------------------------------------
 (7) _EUSART1_Transmit_ISR                                 0     0      0       0
 ---------------------------------------------------------------------------------
 (7) _EUSART1_Receive_ISR                                  0     0      0       0
 ---------------------------------------------------------------------------------
 (7) _CCP4_CaptureISR                                      2     2      0     204
                                              5 COMRAM     2     2      0
                      _CCP4_CallBack
 ---------------------------------------------------------------------------------
 (8) _CCP4_CallBack                                        2     0      2     157
                                              3 COMRAM     2     0      2
               i2_delay_25ms_n_times
 ---------------------------------------------------------------------------------
 (9) i2_delay_25ms_n_times                                 3     1      2      71
                                              0 COMRAM     3     1      2
 ---------------------------------------------------------------------------------
 Estimated maximum stack depth 9
 ---------------------------------------------------------------------------------

 Call Graph Graphs:

 _main (ROOT)
   _LED_play_pattern
     _clearPattern
       _colorBlack
         _LEDZero
     _playArmed
       _colorRed
         _LEDOne
         _LEDZero
       _colorRedTwo
         _LEDOne
         _LEDZero
       _delay_25ms_n_times
     _playDamage
       _clearPattern
         _colorBlack
           _LEDZero
       _colorRed
         _LEDOne
         _LEDZero
       _delay_25ms_n_times
     _playElementDamage
       _colorBlue
         _LEDOne
         _LEDZero
       _colorBlueTwo
         _LEDOne
         _LEDZero
       _delay_25ms_n_times
     _playHeal
       _colorGreen
         _LEDOne
         _LEDZero
       _delay_25ms_n_times
     _playStun
       _colorRed
         _LEDOne
         _LEDZero
       _colorYellow
         _LEDOne
         _LEDZero
       _delay_25ms_n_times
     _playStunSelf
       _clearPattern
         _colorBlack
           _LEDZero
       _colorYellow
         _LEDOne
         _LEDZero
     _playTestFailed
       _colorPink
         _LEDOne
         _LEDZero
       _delay_25ms_n_times
     _playTestPassed
       _colorBlue
         _LEDOne
         _LEDZero
       _colorGreen
         _LEDOne
         _LEDZero
       _colorRed
         _LEDOne
         _LEDZero
       _colorYellow
         _LEDOne
         _LEDZero
       _delay_25ms_n_times
   _SYSTEM_Initialize
     _CCP4_Initialize
     _EUSART1_Initialize
     _EUSART2_Initialize
     _I2C2_Initialize
     _INTERRUPT_Initialize
     _OSCILLATOR_Initialize
     _PIN_MANAGER_Initialize
     _PWM5_Initialize
     _SPI1_Initialize
     _TMR1_Initialize
       _TMR1_StartTimer
     _TMR2_Initialize
       _TMR2_StartTimer
     _TMR3_Initialize
       _TMR3_SetInterruptHandler
       _TMR3_StartTimer
     _TMR4_Initialize
       _TMR4_StartTimer
   _delay_25ms_n_times

 _INTERRUPT_InterruptManager (ROOT)
   _CCP4_CaptureISR
     _CCP4_CallBack
       i2_delay_25ms_n_times
   _EUSART1_Receive_ISR
   _EUSART1_Transmit_ISR
   _EUSART2_Receive_ISR
   _EUSART2_Transmit_ISR
   _I2C2_BusCollisionISR
   _I2C2_ISR
     _I2C2_FunctionComplete
     _I2C2_Stop
   _TMR3_ISR
     _TMR3_CallBack
       Absolute function(Fake) *
       _TMR3_DefaultInterruptHandler *

 Address spaces:
Name               Size   Autos  Total    Cost      Usage
BIGRAM             F37      0       0      37        0.0%
EEDATA             400      0       0       0        0.0%
BITBANK14          100      0       0      33        0.0%
BANK14             100      0       0      34        0.0%
BITBANK13          100      0       0      31        0.0%
BANK13             100      0       0      32        0.0%
BITBANK12          100      0       0      29        0.0%
BANK12             100      0       0      30        0.0%
BITBANK11          100      0       0      27        0.0%
BANK11             100      0       0      28        0.0%
BITBANK10          100      0       0      25        0.0%
BANK10             100      0       0      26        0.0%
BITBANK9           100      0       0      23        0.0%
BANK9              100      0       0      24        0.0%
BITBANK8           100      0       0      21        0.0%
BANK8              100      0       0      22        0.0%
BITBANK7           100      0       0      19        0.0%
BANK7              100      0       0      20        0.0%
BITBANK6           100      0       0      17        0.0%
BANK6              100      0       0      18        0.0%
BITBANK5           100      0       0      15        0.0%
BANK5              100      0       0      16        0.0%
BITBANK4           100      0       0      13        0.0%
BANK4              100      0       0      14        0.0%
BITBANK3           100      0       0      10        0.0%
BANK3              100      0       0      11        0.0%
BITBANK2           100      0       0       8        0.0%
BANK2              100      0       0       9        0.0%
BITBANK1           100      0       0       6        0.0%
BANK1              100      0       0       7        0.0%
BITBANK0            A0      0       0       4        0.0%
BANK0               A0      8      1D       5       18.1%
BITCOMRAM           5E      0       0       0        0.0%
COMRAM              5E      B      56       1       91.5%
BITBANK15           38      0       0      35        0.0%
BANK15              38      0       0      36        0.0%
BITSFR_1             0      0       0      40        0.0%
SFR_1                0      0       0      40        0.0%
BITSFR               0      0       0      40        0.0%
SFR                  0      0       0      40        0.0%
STACK                0      0       0       2        0.0%
NULL                 0      0       0       0        0.0%
ABS                  0      0      73      12        0.0%
DATA                 0      0      73       3        0.0%
CODE                 0      0       0       0        0.0%


Microchip Technology PIC18 Macro Assembler V1.36 build -262312587 
Symbol Table                                                                                   Sun Apr  3 18:35:22 2016

                         _CCP4_Initialize 1FFE                             ?_colorBlueTwo 0044  
                _eusart1TxBufferRemaining 0055                              ?_colorRedTwo 0044  
                            ?_colorYellow 0044              __end_ofi2_delay_25ms_n_times 1D20  
                            __CFG_CP0$OFF 000000                              __CFG_CP1$OFF 000000  
                            __CFG_CP2$OFF 000000                              __CFG_CP3$OFF 000000  
                                     l323 1BD8                                       l403 1A0E  
                                     l332 1B46                                       l333 1B48  
                                     l318 1BAC                                       l319 1BAE  
                                     l351 1AE0                                       l352 1AE2  
                                     l337 1B72                                       l274 000A  
                                     l356 1B0C                                       l277 0008  
                                     l395 19E2                              __CFG_CPB$OFF 000000  
                                     _PR2 000FBB                                       _PR4 000F52  
                            __CFG_CPD$OFF 000000                           _timer1ReloadVal 0051  
                         _TMR2_Initialize 2020                                       tosl 000FFD  
                                     wreg 000FE8                  __end_of_LED_play_pattern 1A5C  
                 __end_of_CCP4_CaptureISR 1FFE                              __CFG_LVP$OFF 000000  
                        __end_of_I2C2_ISR 11E0                           __end_of_LEDZero 0000  
                                    l1247 1C28                                      l3130 1C98  
                                    l3202 1B52                           _timer3ReloadVal 0053  
                                    l3220 1B80                                      l3204 1B56  
                                    l3134 1CB0                                      l3126 1C8E  
                                    l3118 1D26                                      l3150 1CC4  
                                    l3090 0000                                      l3218 1B7C  
                                    l3322 1A62                                      l3092 0000  
                                    l3228 1B9C                                      l3236 1F5E  
                                    l3252 1AEC                                      l3332 1A7E  
                                    l3182 1BE2                                      l3166 1BB8  
                                    l3270 1B1A                                      l3254 1AF0  
                                    l3342 1A9A                                      l3510 19FC  
                                    l3502 19E4                                      l3184 1BE6  
                                    l3168 1BBC                                      l3192 1C02  
                                    l3352 1AB6                                      l3520 1A10  
                                    l3512 1A02                                      l3514 1A08  
                                    l3268 1B16                                      l3508 19F6  
                                    l3532 1A32                                      l3278 1B36  
                                    l3286 11E4                                      l3366 1D82  
                                    l3526 1A26                                      l3534 1A54  
                                    l3528 1A2C                                      STR_1 1017  
                                    STR_2 1008                                      u1220 1D3E  
                                    _LATA 000F89                                      u1430 1A7A  
                                    _LATB 000F8A                                      _LATC 000F8B  
                                    u1440 1A96                                      u1450 1AB2  
                                    u1507 11FA                                      u1460 1ACE  
                                    u1517 120A                                      u1470 1D9A  
                                    u1607 129E                                      u1527 121A  
                                    u1617 12AE                                      u1537 122A  
                                    u1707 1D44                                      u1627 12BE  
                                    u1547 123A                                      u1717 1C9E  
                                    u1637 12CE                                      u1557 124A  
                                    u1727 1CB6                                      u1647 12DE  
                                    u1567 125A                                      u1657 12EE  
                                    u1577 126A                                      u1667 12FE  
                                    u1587 127A                                      u1677 130E  
                                    u1597 128A                                      u1687 131E  
                                    u1697 132E                                      _TMR1 000FCE  
                                    _TMR2 000FBC                                      _TMR3 000FB2  
                                    _TMR4 000F53                                      _WPUB 000F61  
                   ??_EUSART2_Receive_ISR 0044                                      _main 1C0C  
                                    fsr2h 000FDA                                      indf2 000FDF  
                                    fsr2l 000FD9                                      btemp 0057  
                           __CFG_BORV$190 000000                                      pclat 000FFA  
                                    start 008C                             __CFG_IESO$OFF 000000  
            __end_of_EUSART2_Transmit_ISR 1EB0                           _TMR3_Initialize 1DA6  
                         _PWM5_Initialize 1FC2                            ??_colorBlueTwo 0075  
                            ___param_bank 000010                      __end_of_clearPattern 1D4E  
                              _i2c2_state 002E            __size_of_OSCILLATOR_Initialize 000C  
           __end_of_OSCILLATOR_Initialize 203C                                     ?_main 0044  
                       __end_of_I2C2_Stop 1D7C                           _TMR1_StartTimer 205C  
                                   _T1CON 000FCD                                     _T2CON 000FBA  
                                   _T3CON 000FB1                                     _T4CON 000F51  
                          __CFG_DEBUG$OFF 000000            __size_of_I2C2_FunctionComplete 0018  
                                   i2l704 1ED0                                     i2l632 1EAC  
                                   i2l560 0026                                     i2l570 0062  
                                   i2l562 0032                                     i2l572 006E  
                                   i2l564 003E                                     i2l566 004A  
                                   i2l568 0056                                     i2l576 0078  
                                   i2l922 108A                                     i2l932 1112  
                                   i2l916 1042                                     i2l950 1194  
                                   i2l942 1142                                     i2l927 10B4  
                                   i2l919 1082                                     i2l928 10BC  
                                   i2l945 1158                                     i2l946 1168  
                                   i2l938 1120             __end_of_I2C2_FunctionComplete 1FAC  
                                   _TMR1H 000FCF                                     _TMR3H 000FB3  
                                   _TMR1L 000FCE                                     _TMR3L 000FB2  
                                   _TRISA 000F92                                     _TRISB 000F93  
                                   _TRISC 000F94                             __CFG_WRT0$OFF 000000  
                         _TMR4_Initialize 2010                             __CFG_WRT1$OFF 000000  
                           __CFG_WRT2$OFF 000000         __size_of_TMR3_SetInterruptHandler 000A  
                           __CFG_WRT3$OFF 000000                      _EUSART1_Transmit_ISR 1EB0  
               ?_TMR3_SetInterruptHandler 0075                            __CFG_EBTR0$OFF 000000  
                          __CFG_FCMEN$OFF 000000                            __CFG_EBTR1$OFF 000000  
                          __CFG_EBTR2$OFF 000000                            __CFG_EBTR3$OFF 000000  
                           __CFG_WRTB$OFF 000000                          __end_of_TMR3_ISR 1E8C  
                           __CFG_WRTC$OFF 000000                             __CFG_WRTD$OFF 000000  
                          __CFG_EBTRB$OFF 000000            ??_TMR3_DefaultInterruptHandler 0044  
                      __CFG_MCLRE$EXTMCLR 000000                   __end_of_TMR1_Initialize 1FC2  
                                   pclath 000FFA                    __size_of_CCP4_CallBack 0028  
                                   status 000FD8                   __end_of_CCP4_Initialize 2010  
                          __CFG_HFOFST$ON 000000                           _TMR2_StartTimer 2058  
                __size_of_SPI1_Initialize 000A                            __CFG_PBADEN$ON 000000  
                       ??_I2C2_Initialize 0075                           __initialization 1ED4  
                          _playTestFailed 1D7C                __end_of_EUSART1_Initialize 1E44  
                            __end_of_main 1C5A                            _playTestPassed 1A5C  
                 __end_of_TMR2_Initialize 2030               ?_INTERRUPT_InterruptManager 0044  
                                  ??_main 007D                               _i2c2_object 0019  
                         _TMR3_StartTimer 2054                             __activetblptr 000003  
                   _TMR3_InterruptHandler 004F                            __CFG_PLLCFG$ON 000000  
                               ??_LEDZero 0075                     ?_EUSART1_Transmit_ISR 0044  
                       _playElementDamage 1B40                          ?_CCP4_CaptureISR 0044  
              __end_of_EUSART2_Initialize 1E68               __size_of_delay_25ms_n_times 0032  
                _eusart2TxBufferRemaining 0056                                    _CCPR4H 000F59  
                                  _CCPR5H 000F56                                    _CCPR4L 000F58  
                                  _CCPR5L 000F55                        ?_playElementDamage 0044  
                                  _ANSELA 000F38                                    _ANSELB 000F39  
                                  _ANSELC 000F3A                                    _T1GCON 000FCC  
                                  _T3GCON 000FB4              __end_of_I2C2_BusCollisionISR 2064  
                 __end_of_PWM5_Initialize 1FD6                   __end_of_TMR3_Initialize 1DCE  
                                  _LEDOne 0000                                    i2l2400 1FA6  
                                  i2l3042 1ECC                                    i2l2510 10AE  
                                  i2l2502 1090                                    i2l2512 10B8  
                                  i2l2504 1096                                    i2l2602 11AC  
                                  i2l2620 1EFE                                    i2l2524 10D8  
                                  i2l2614 1EA8                            __CFG_WDTEN$OFF 000000  
                                  i2l2392 1D78                                    i2l2650 1F20  
                                  i2l2554 112E                                    i2l2740 1D10  
                                  i2l2732 1CF0                                    i2l2628 1F14  
                                  i2l2580 1178                                    i2l2564 1146  
                                  i2l2492 1078                                    i2l2736 1CFA  
                                  i2l2592 119A                                    i2l2576 1170  
                                  i2l2496 1084                                    i2l2658 1F36  
                                  i2l2594 119E                                    i2l2596 11A4  
                                  i2l2960 1E0E                                    i2l2954 1E02  
                                  i2l2958 1E0A                                    _RCREG1 000FAE  
                                  _RCREG2 000F74                                    _RCSTA1 000FAB  
                                  _RCSTA2 000F71                                    _OSCCON 000FD3  
                                  _SPBRG1 000FAF                                    _SPBRG2 000F75  
                    i2_delay_25ms_n_times 1CF0                                    _TXREG1 000FAD  
                                  _TXREG2 000F73                                    _TXSTA1 000FAC  
                                  _TXSTA2 000F72                           _TMR4_StartTimer 2050  
                     ??_playElementDamage 0078                    __end_of_playTestFailed 1DA6  
                          __CFG_XINST$OFF 000000                              _CCPTMRS1bits 000F48  
                  __end_of_playTestPassed 1ADA                          __end_of_colorRed 1782  
                 __end_of_TMR1_StartTimer 2060                            _p_i2c2_current 0022  
                          __CFG_STVREN$ON 000000                   __end_of_TMR4_Initialize 2020  
                               ?_I2C2_ISR 0044                                    clear_0 1EDA  
                                  clear_1 1EE6                      __size_of_colorRedTwo 00D0  
                I2C2_Stop@completion_code 0044                             _CCP4_CallBack 1DF6  
                        __end_of_playHeal 1F7A                      __size_of_colorYellow 00E2  
                        __end_of_playStun 1B40                 __end_of_playElementDamage 1BA6  
                            __mediumconst 0000                      _EUSART2_Transmit_ISR 1E8C  
                    __end_of_colorBlueTwo 15DE                     i2delay_25ms_n_times@n 0044  
                 __end_of_TMR2_StartTimer 205C  TMR3_SetInterruptHandler@InterruptHandler 0075  
                         _eusart1RxBuffer 0001             __size_of_INTERRUPT_Initialize 0014  
                         _eusart1TxBuffer 0060                           _eusart2RxBuffer 0009  
                        ?_TMR1_Initialize 0044                         _SYSTEM_Initialize 1C5A  
                         _eusart2TxBuffer 0011                                __accesstop 0060  
                 __end_of__initialization 1EEC                     ?i2_delay_25ms_n_times 0044  
                        ?_CCP4_Initialize 0044                        ?_SYSTEM_Initialize 0044  
                           ___rparam_used 000001                     __end_of_TMR3_CallBack 1F94  
                         ?_playTestFailed 0044                     __size_of_clearPattern 002E  
                          __pcstackCOMRAM 0044                           ?_playTestPassed 0044  
                     ??_SYSTEM_Initialize 0077                   __end_of_TMR3_StartTimer 2058  
                               ?_TMR3_ISR 0044                         ??_SPI1_Initialize 0075  
                          _i2c2_trb_count 002F                                ??_I2C2_ISR 0045  
                        ?_TMR2_Initialize 0044                            ?_CCP4_CallBack 0047  
                  ??_EUSART1_Transmit_ISR 0044                     TMR3_ISR@CountCallBack 0020  
                   ?_EUSART2_Transmit_ISR 0044               __end_of_EUSART1_Receive_ISR 1F3A  
                      __size_of_colorBlue 00C6                        __size_of_colorPink 00E2  
                       ?_LED_play_pattern 0044                   __end_of_TMR4_StartTimer 2054  
               __end_of_SYSTEM_Initialize 1C8E                               playDamage@i 0078  
                           _eusart1RxHead 0029                             _eusart2RxHead 002C  
                              __pbssBANK0 0060                        ??_LED_play_pattern 007A  
                           _eusart1TxTail 002A                                   ?_LEDOne 0044  
                           _eusart2TxTail 002D                        playElementDamage@i 0079  
                      playElementDamage@j 0078                              _clearPattern 1D20  
                        ?_PWM5_Initialize 0044                          ?_TMR3_Initialize 0044  
                              __pnvCOMRAM 004F                             ?_playStunSelf 0044  
                      __CFG_CCP2MX$PORTC1 000000                        __size_of_playArmed 0066  
        __end_of_TMR3_SetInterruptHandler 2046                          ?_TMR1_StartTimer 0044  
                              ??_TMR3_ISR 0044                        __CFG_CCP3MX$PORTB5 000000  
                   LED_play_pattern@i_446 007C                                   _CCP4CON 000F57  
                                 _CCP5CON 000F54                          ?_TMR4_Initialize 0044  
                    _I2C2_BusCollisionISR 2062                __size_of_playElementDamage 0066  
                                 _LEDZero 0000         I2C2_ISR@i2c_10bit_address_restart 0026  
                                 _OSCCON2 000FD2               __end_of_EUSART2_Receive_ISR 1F18  
                              _colorBlack 1918                                 _I2C2_Stop 1D4E  
                                 _OSCTUNE 000F9B                                   i2u57_40 1E82  
                                 _SPBRGH1 000FB0                                   _SPBRGH2 000F76  
                              _colorGreen 15DE                                   _SSP1ADD 000FC8  
                                 _SSP2ADD 000F6E                                   _SSP2BUF 000F6F  
                        ?_TMR2_StartTimer 0044                                 ?_colorRed 0044  
                         _I2C2_Initialize 1F3A                    ??i2_delay_25ms_n_times 0046  
                         __size_of_LEDOne 0000                    I2C2_MasterRead@trBlock 0031  
                               ?_playHeal 0044                            ??_playStunSelf 0078  
                         __CFG_PWRTEN$OFF 000000                                 ?_playStun 0044  
                                 __Hparam 0000                                   __Lparam 0000  
                       __end_of_colorBlue 1918                         __end_of_colorPink 141A  
                         ??_CCP4_CallBack 0049                          ?_TMR3_StartTimer 0044  
                            __psmallconst 1000                     ?_I2C2_BusCollisionISR 0044  
                                 __pcinit 1ED4                                   __ramtop 1000  
                 LED_play_pattern@pattern 007A                                   __ptext0 1C0C  
                                 __ptext1 1C5A                                   __ptext2 2010  
                                 __ptext3 2050                                   __ptext4 1DA6  
                                 __ptext5 2054                                   __ptext6 203C  
                                 __ptext7 2020                                   __ptext8 2058  
                                 __ptext9 1FAC                     __size_of_colorBlueTwo 00E2  
                               _T1CONbits 000FCD                     _OSCILLATOR_Initialize 2030  
                  ??_EUSART2_Transmit_ISR 0044                                 _T2CONbits 000FBA  
                               _T3CONbits 000FB1                                 _T4CONbits 000F51  
                      _EUSART1_Initialize 1E1E                  ??_PIN_MANAGER_Initialize 0075  
                              ?_I2C2_Stop 0044                     _I2C2_FunctionComplete 1F94  
                              _playDamage 1CC0                     _last_pattern_was_heal 0030  
                     delay_25ms_n_times@n 0075                         __end_of_playArmed 1C0C  
              __size_of_SYSTEM_Initialize 0034                          ?_TMR4_StartTimer 0044  
                              ??_colorRed 0075                      end_of_initialization 1EEC  
                     ?_EUSART1_Initialize 0044                                ??_playHeal 0078  
                              ??_playStun 0078                        _EUSART2_Initialize 1E44  
                           playStunSelf@i 0079                        _p_i2c2_trb_current 0024  
                                 postdec2 000FDD                    I2C2_ISR@i2c_bytes_left 0027  
                            _colorBlueTwo 14FC                                   postinc0 000FEE  
                                 postinc2 000FDE                      ??_EUSART1_Initialize 0075  
                     ?_EUSART2_Initialize 0044                  _TMR3_SetInterruptHandler 203C  
                       __size_of_I2C2_ISR 01C4                   __end_of_I2C2_Initialize 1F5A  
              __end_of_delay_25ms_n_times 1CC0                                 _TRISAbits 000F92  
                             ?_colorBlack 0044                               ?_colorGreen 0044  
                    ??_EUSART2_Initialize 0075                          ??_playTestFailed 0078  
                          __end_of_LEDOne 0000                           _SPI1_Initialize 2046  
                        ??_playTestPassed 0078                         LED_play_pattern@i 007B  
                __size_of_CCP4_CaptureISR 0014                             clearPattern@i 0076  
                           ??_colorRedTwo 0075              __end_of_INTERRUPT_Initialize 1FEA  
                  ??_I2C2_BusCollisionISR 0044                             ??_colorYellow 0075  
                       __size_of_TMR3_ISR 0024              __end_of_PIU_HEARTBEAT_PACKET 1008  
                  ?_OSCILLATOR_Initialize 0044                    ?_I2C2_FunctionComplete 0044  
                     start_initialization 1ED4                      __end_of_playStunSelf 1338  
                             ??_I2C2_Stop 0044           __size_of_PIN_MANAGER_Initialize 0028  
                             ?_playDamage 0044                                  ??_LEDOne 0075  
                __size_of_TMR1_Initialize 0016                 __size_of_LED_play_pattern 0082  
                     __size_of_colorBlack 00C2                       __size_of_colorGreen 00D2  
                    I2C2_ISR@pi2c_buf_ptr 001E                  __size_of_CCP4_Initialize 0012  
                          _eusart1RxCount 0028                       __end_of_colorRedTwo 1852  
                   CCP4_CaptureISR@module 0049                            _eusart2RxCount 002B  
                         playTestFailed@i 0078                                  ?_LEDZero 0044  
                     __end_of_colorYellow 14FC                               __pbssCOMRAM 0001  
                        ?_I2C2_Initialize 0044             __size_of_EUSART1_Transmit_ISR 0024  
                           __pcstackBANK0 0075                  __size_of_TMR2_Initialize 0010  
                  __size_of_TMR3_CallBack 001A                   __end_of_SPI1_Initialize 2050  
                           _i2c2_tr_queue 003D              __size_of_EUSART1_Receive_ISR 0022  
                       __size_of_colorRed 00D2                           playTestPassed@i 0078  
                              playArmed@i 0079                                playArmed@j 0078  
                  _PIN_MANAGER_Initialize 1DCE                  __size_of_PWM5_Initialize 0014  
                __size_of_TMR3_Initialize 0028                         __size_of_playHeal 0020  
                               __pintcode 0008                         __size_of_playStun 0066  
                     __size_of_playDamage 0030                         ??_CCP4_CaptureISR 0049  
                                _I2C2_ISR 101C              ??_INTERRUPT_InterruptManager 004B  
                               _colorBlue 1852                          __CFG_PRICLKEN$ON 000000  
                               _colorPink 1338                               __smallconst 1000  
                                _BAUDCON1 000FB8                                  _BAUDCON2 000F70  
                __size_of_TMR1_StartTimer 0004                  __size_of_TMR4_Initialize 0010  
                    _INTERRUPT_Initialize 1FD6              __size_of_EUSART2_Receive_ISR 0022  
                               _playArmed 1BA6                                  _LATAbits 000F89  
                                _LATBbits 000F8A             __size_ofi2_delay_25ms_n_times 0030  
                    _PIU_HEARTBEAT_PACKET 1001                                  _IPR1bits 000F9F  
                                _IPR2bits 000FA2                                  _PIE1bits 000F9D  
                                _IPR3bits 000FA5                                  _PIE2bits 000FA0  
                                _IPR4bits 000F7C                                  _PIE3bits 000FA3  
                                _PIE4bits 000F7A                  __size_of_TMR2_StartTimer 0004  
     __size_of_INTERRUPT_InterruptManager 0084                                  i2u173_47 1D00  
                                i2u174_47 1D16                                  _PIR1bits 000F9E  
                                _PIR2bits 000FA1                                  _PIR3bits 000FA4  
                                _PIR4bits 000F7B                ??_TMR3_SetInterruptHandler 0077  
                           _TMR3_CallBack 1F7A                                  _PIR5bits 000F7E  
                                _RCONbits 000FD0                          __CFG_WDTPS$32768 000000  
                                _SSP1CON1 000FC6                                  _SSP2CON1 000F6C  
                                _SSP2CON3 000F69                               _colorRedTwo 1782  
                                _TMR3_ISR 1E68                                  _SSP1STAT 000FC7  
                                _SSP2STAT 000F6D                               _colorYellow 141A  
                   __end_of_CCP4_CallBack 1E1E                     __size_of_playStunSelf 0158  
                              ?_colorBlue 0044                         ??_TMR1_Initialize 0075  
                              ?_colorPink 0044                         ??_CCP4_Initialize 0075  
                __size_of_TMR3_StartTimer 0004                              ??_colorBlack 0075  
                        __size_of_LEDZero 0000             __size_of_EUSART2_Transmit_ISR 0024  
                            ??_colorGreen 0075                          ?_SPI1_Initialize 0044  
                             _INTCON2bits 000FF1                     ?_INTERRUPT_Initialize 0044  
                       ??_TMR2_Initialize 0075                                ?_playArmed 0044  
                      _delay_25ms_n_times 1C8E                  __size_of_TMR4_StartTimer 0004  
                          ?_TMR3_CallBack 0044                                  __Hrparam 0000  
                            _playStunSelf 11E0                                  __Lrparam 0000  
                        _LED_play_pattern 19DA                        __CFG_BOREN$SBORDIS 000000  
                     ?_delay_25ms_n_times 0075                         __CFG_P2BMX$PORTB5 000000  
                      __end_of_colorBlack 19DA                   ??_OSCILLATOR_Initialize 0075  
                      __end_of_colorGreen 16B0               __size_of_EUSART1_Initialize 0026  
                 ??_I2C2_FunctionComplete 0044                         ??_TMR3_Initialize 0077  
                       ??_PWM5_Initialize 0075                                _ANSELAbits 000F38  
              CCP4_CallBack@capturedValue 0047                                 playHeal@i 0078  
                            ??_playDamage 0078                      ??_delay_25ms_n_times 0077  
                                __ptext10 205C                                  __ptext11 2046  
                                __ptext20 19DA                                  __ptext12 1FC2  
                                __ptext21 1A5C                                  __ptext13 1DCE  
                                __ptext30 14FC                                  __ptext22 1D7C  
                                __ptext14 2030                                  __ptext31 1852  
                                __ptext23 1338                                  __ptext15 1FD6  
                                __ptext40 0000                                  __ptext32 1CC0  
                                __ptext24 11E0                                  __ptext16 1F3A  
                                __ptext33 1D20                                  __ptext25 1ADA  
                                __ptext17 1E44                                  __ptext50 1EF6  
                                __ptext42 1E68                                  __ptext34 1918  
                                __ptext26 141A                                  __ptext18 1E1E  
                                __ptext51 1EB0                                  __ptext43 1F7A  
                                __ptext35 1BA6                                  __ptext27 1F5A  
                                __ptext19 1FFE                                  __ptext52 1F18  
                                __ptext44 2060                                  __ptext36 1C8E  
                                __ptext28 15DE                                  __ptext53 1FEA  
                                __ptext45 101C                                  __ptext37 1782  
                                __ptext29 1B40                                  __ptext54 1DF6  
                                __ptext46 1D4E                                  __ptext38 16B0  
                                __ptext55 1CF0                                  __ptext47 1F94  
                                __ptext39 0000                                  __ptext56 0000  
                                __ptext48 2062                                  __ptext49 1E8C  
                               playStun@i 0079                                 playStun@j 0078  
                                _colorRed 16B0                              _SSP2CON1bits 000F6C  
                            _SSP2CON2bits 000F6B                         ??_TMR1_StartTimer 0075  
                           ?_clearPattern 0044               __size_of_EUSART2_Initialize 0024  
                       ??_TMR4_Initialize 0075                             __size_of_main 004E  
                                _playHeal 1F5A                                  _playStun 1ADA  
                                _piu_buff 0068                                  int$flags 0057  
                      __end_of_playDamage 1CF0                         ??_TMR2_StartTimer 0075  
      __end_of_INTERRUPT_InterruptManager 008C                _INTERRUPT_InterruptManager 0008  
                 I2C2_MasterWrite@trBlock 0037                               ??_colorBlue 0075  
    __end_of_TMR3_DefaultInterruptHandler 2062     __size_of_TMR3_DefaultInterruptHandler 0002  
            _TMR3_DefaultInterruptHandler 2060             __size_of_I2C2_BusCollisionISR 0002  
                     _EUSART1_Receive_ISR 1F18                               ??_colorPink 0075  
                              _INTCONbits 000FF2                    ??_INTERRUPT_Initialize 0075  
                          ??_clearPattern 0075                         ??_TMR3_StartTimer 0075  
                                intlevel2 0000                      ?_EUSART1_Receive_ISR 0044  
                         _CCP4_CaptureISR 1FEA                               ??_playArmed 0078  
                     I2C2_ISR@i2c_address 0042                   ?_PIN_MANAGER_Initialize 0044  
                         ??_TMR3_CallBack 0044                                _RCSTA1bits 000FAB  
                              _RCSTA2bits 000F71              __end_of_EUSART1_Transmit_ISR 1ED4  
                 __size_of_playTestFailed 002A                         ??_TMR4_StartTimer 0075  
                 __size_of_playTestPassed 007E                       _EUSART2_Receive_ISR 1EF6  
           ?_TMR3_DefaultInterruptHandler 0044                         __CFG_T3CMX$PORTC0 000000  
                   ??_EUSART1_Receive_ISR 0044            __end_of_PIN_MANAGER_Initialize 1DF6  
                __size_of_I2C2_Initialize 0020                      ?_EUSART2_Receive_ISR 0044  
                      __size_of_I2C2_Stop 002E                         __CFG_FOSC$INTIO67 000000  
                         _TMR1_Initialize 1FAC  
